

Microchip Technology PIC18 LITE Macro Assembler V1.12 build 49521 
                                                                                               Tue Jun 10 13:41:36 2014

HI-TECH Software Omniscient Code Generator (Lite mode) build 49521
     1  0000                     opt subtitle "HI-TECH Software Omniscient Code Generator (Lite mode) build 49521"
     2                           opt subtitle "HI-TECH Software Omniscient Code Generator (Lite mode) build 49521"
     3                           
     4                           opt pagewidth 120
     5                           
     6                           	opt lm
     7                           
     8  0000                     porta	equ	0F80h
     9  0000                     portb	equ	0F81h
    10  0000                     portc	equ	0F82h
    11  0000                     portd	equ	0F83h
    12  0000                     porte	equ	0F84h
    13  0000                     lata	equ	0F89h
    14  0000                     latb	equ	0F8Ah
    15  0000                     latc	equ	0F8Bh
    16  0000                     latd	equ	0F8Ch
    17  0000                     late	equ	0F8Dh
    18  0000                     trisa	equ	0F92h
    19  0000                     trisb	equ	0F93h
    20  0000                     trisc	equ	0F94h
    21  0000                     trisd	equ	0F95h
    22  0000                     trise	equ	0F96h
    23  0000                     pie1	equ	0F9Dh
    24  0000                     pir1	equ	0F9Eh
    25  0000                     ipr1	equ	0F9Fh
    26  0000                     pie2	equ	0FA0h
    27  0000                     pir2	equ	0FA1h
    28  0000                     ipr2	equ	0FA2h
    29  0000                     t3con	equ	0FB1h
    30  0000                     tmr3l	equ	0FB2h
    31  0000                     tmr3h	equ	0FB3h
    32  0000                     ccp1con	equ	0FBDh
    33  0000                     ccpr1l	equ	0FBEh
    34  0000                     ccpr1h	equ	0FBFh
    35  0000                     adcon1	equ	0FC1h
    36  0000                     adcon0	equ	0FC2h
    37  0000                     adresl	equ	0FC3h
    38  0000                     adresh	equ	0FC4h
    39  0000                     sspcon2	equ	0FC5h
    40  0000                     sspcon1	equ	0FC6h
    41  0000                     sspstat	equ	0FC7h
    42  0000                     sspadd	equ	0FC8h
    43  0000                     sspbuf	equ	0FC9h
    44  0000                     t2con	equ	0FCAh
    45  0000                     pr2	equ	0FCBh
    46  0000                     tmr2	equ	0FCCh
    47  0000                     t1con	equ	0FCDh
    48  0000                     tmr1l	equ	0FCEh
    49  0000                     tmr1h	equ	0FCFh
    50  0000                     rcon	equ	0FD0h
    51  0000                     wdtcon	equ	0FD1h
    52  0000                     lvdcon	equ	0FD2h
    53  0000                     osccon	equ	0FD3h
    54  0000                     t0con	equ	0FD5h
    55  0000                     tmr0l	equ	0FD6h
    56  0000                     tmr0h	equ	0FD7h
    57  0000                     status	equ	0FD8h
    58  0000                     fsr2	equ	0FD9h
    59  0000                     fsr2l	equ	0FD9h
    60  0000                     fsr2h	equ	0FDAh
    61  0000                     plusw2	equ	0FDBh
    62  0000                     preinc2	equ	0FDCh
    63  0000                     postdec2	equ	0FDDh
    64  0000                     postinc2	equ	0FDEh
    65  0000                     indf2	equ	0FDFh
    66  0000                     bsr	equ	0FE0h
    67  0000                     fsr1	equ	0FE1h
    68  0000                     fsr1l	equ	0FE1h
    69  0000                     fsr1h	equ	0FE2h
    70  0000                     plusw1	equ	0FE3h
    71  0000                     preinc1	equ	0FE4h
    72  0000                     postdec1	equ	0FE5h
    73  0000                     postinc1	equ	0FE6h
    74  0000                     indf1	equ	0FE7h
    75  0000                     wreg	equ	0FE8h
    76  0000                     fsr0	equ	0FE9h
    77  0000                     fsr0l	equ	0FE9h
    78  0000                     fsr0h	equ	0FEAh
    79  0000                     plusw0	equ	0FEBh
    80  0000                     preinc0	equ	0FECh
    81  0000                     postdec0	equ	0FEDh
    82  0000                     postinc0	equ	0FEEh
    83  0000                     indf0	equ	0FEFh
    84  0000                     intcon3	equ	0FF0h
    85  0000                     intcon2	equ	0FF1h
    86  0000                     intcon	equ	0FF2h
    87  0000                     prod	equ	0FF3h
    88  0000                     prodl	equ	0FF3h
    89  0000                     prodh	equ	0FF4h
    90  0000                     tablat	equ	0FF5h
    91  0000                     tblptr	equ	0FF6h
    92  0000                     tblptrl	equ	0FF6h
    93  0000                     tblptrh	equ	0FF7h
    94  0000                     tblptru	equ	0FF8h
    95  0000                     pcl	equ	0FF9h
    96  0000                     pclat	equ	0FFAh
    97  0000                     pclath	equ	0FFAh
    98  0000                     pclatu	equ	0FFBh
    99  0000                     stkptr	equ	0FFCh
   100  0000                     tosl	equ	0FFDh
   101  0000                     tosh	equ	0FFEh
   102  0000                     tosu	equ	0FFFh
   103                           opt subtitle "HI-TECH Software Omniscient Code Generator (Lite mode) build 49521"
   104                           
   105  0000                     	endm
   106                           opt subtitle "HI-TECH Software Omniscient Code Generator (Lite mode) build 49521"
   107                           
   108                           opt pagewidth 120
   109  0000                     SPPDATA equ 0F62h ;# 
   110                           opt subtitle "HI-TECH Software Omniscient Code Generator (Lite mode) build 49521"
   111  0000                     SPPCFG equ 0F63h ;# 
   112                           opt subtitle "HI-TECH Software Omniscient Code Generator (Lite mode) build 49521"
   113  0000                     SPPEPS equ 0F64h ;# 
   114                           opt subtitle "HI-TECH Software Omniscient Code Generator (Lite mode) build 49521"
   115  0000                     SPPCON equ 0F65h ;# 
   116                           opt subtitle "HI-TECH Software Omniscient Code Generator (Lite mode) build 49521"
   117  0000                     UFRM equ 0F66h ;# 
   118                           opt subtitle "HI-TECH Software Omniscient Code Generator (Lite mode) build 49521"
   119  0000                     UFRML equ 0F66h ;# 
   120                           opt subtitle "HI-TECH Software Omniscient Code Generator (Lite mode) build 49521"
   121  0000                     UFRMH equ 0F67h ;# 
   122                           opt subtitle "HI-TECH Software Omniscient Code Generator (Lite mode) build 49521"
   123  0000                     UIR equ 0F68h ;# 
   124                           opt subtitle "HI-TECH Software Omniscient Code Generator (Lite mode) build 49521"
   125  0000                     UIE equ 0F69h ;# 
   126                           opt subtitle "HI-TECH Software Omniscient Code Generator (Lite mode) build 49521"
   127  0000                     UEIR equ 0F6Ah ;# 
   128                           opt subtitle "HI-TECH Software Omniscient Code Generator (Lite mode) build 49521"
   129  0000                     UEIE equ 0F6Bh ;# 
   130                           opt subtitle "HI-TECH Software Omniscient Code Generator (Lite mode) build 49521"
   131  0000                     USTAT equ 0F6Ch ;# 
   132                           opt subtitle "HI-TECH Software Omniscient Code Generator (Lite mode) build 49521"
   133  0000                     UCON equ 0F6Dh ;# 
   134                           opt subtitle "HI-TECH Software Omniscient Code Generator (Lite mode) build 49521"
   135  0000                     UADDR equ 0F6Eh ;# 
   136                           opt subtitle "HI-TECH Software Omniscient Code Generator (Lite mode) build 49521"
   137  0000                     UCFG equ 0F6Fh ;# 
   138                           opt subtitle "HI-TECH Software Omniscient Code Generator (Lite mode) build 49521"
   139  0000                     UEP0 equ 0F70h ;# 
   140                           opt subtitle "HI-TECH Software Omniscient Code Generator (Lite mode) build 49521"
   141  0000                     UEP1 equ 0F71h ;# 
   142                           opt subtitle "HI-TECH Software Omniscient Code Generator (Lite mode) build 49521"
   143  0000                     UEP2 equ 0F72h ;# 
   144                           opt subtitle "HI-TECH Software Omniscient Code Generator (Lite mode) build 49521"
   145  0000                     UEP3 equ 0F73h ;# 
   146                           opt subtitle "HI-TECH Software Omniscient Code Generator (Lite mode) build 49521"
   147  0000                     UEP4 equ 0F74h ;# 
   148                           opt subtitle "HI-TECH Software Omniscient Code Generator (Lite mode) build 49521"
   149  0000                     UEP5 equ 0F75h ;# 
   150                           opt subtitle "HI-TECH Software Omniscient Code Generator (Lite mode) build 49521"
   151  0000                     UEP6 equ 0F76h ;# 
   152                           opt subtitle "HI-TECH Software Omniscient Code Generator (Lite mode) build 49521"
   153  0000                     UEP7 equ 0F77h ;# 
   154                           opt subtitle "HI-TECH Software Omniscient Code Generator (Lite mode) build 49521"
   155  0000                     UEP8 equ 0F78h ;# 
   156                           opt subtitle "HI-TECH Software Omniscient Code Generator (Lite mode) build 49521"
   157  0000                     UEP9 equ 0F79h ;# 
   158                           opt subtitle "HI-TECH Software Omniscient Code Generator (Lite mode) build 49521"
   159  0000                     UEP10 equ 0F7Ah ;# 
   160                           opt subtitle "HI-TECH Software Omniscient Code Generator (Lite mode) build 49521"
   161  0000                     UEP11 equ 0F7Bh ;# 
   162                           opt subtitle "HI-TECH Software Omniscient Code Generator (Lite mode) build 49521"
   163  0000                     UEP12 equ 0F7Ch ;# 
   164                           opt subtitle "HI-TECH Software Omniscient Code Generator (Lite mode) build 49521"
   165  0000                     UEP13 equ 0F7Dh ;# 
   166                           opt subtitle "HI-TECH Software Omniscient Code Generator (Lite mode) build 49521"
   167  0000                     UEP14 equ 0F7Eh ;# 
   168                           opt subtitle "HI-TECH Software Omniscient Code Generator (Lite mode) build 49521"
   169  0000                     UEP15 equ 0F7Fh ;# 
   170                           opt subtitle "HI-TECH Software Omniscient Code Generator (Lite mode) build 49521"
   171  0000                     PORTA equ 0F80h ;# 
   172                           opt subtitle "HI-TECH Software Omniscient Code Generator (Lite mode) build 49521"
   173  0000                     PORTB equ 0F81h ;# 
   174                           opt subtitle "HI-TECH Software Omniscient Code Generator (Lite mode) build 49521"
   175  0000                     PORTC equ 0F82h ;# 
   176                           opt subtitle "HI-TECH Software Omniscient Code Generator (Lite mode) build 49521"
   177  0000                     PORTD equ 0F83h ;# 
   178                           opt subtitle "HI-TECH Software Omniscient Code Generator (Lite mode) build 49521"
   179  0000                     PORTE equ 0F84h ;# 
   180                           opt subtitle "HI-TECH Software Omniscient Code Generator (Lite mode) build 49521"
   181  0000                     LATA equ 0F89h ;# 
   182                           opt subtitle "HI-TECH Software Omniscient Code Generator (Lite mode) build 49521"
   183  0000                     LATB equ 0F8Ah ;# 
   184                           opt subtitle "HI-TECH Software Omniscient Code Generator (Lite mode) build 49521"
   185  0000                     LATC equ 0F8Bh ;# 
   186                           opt subtitle "HI-TECH Software Omniscient Code Generator (Lite mode) build 49521"
   187  0000                     LATD equ 0F8Ch ;# 
   188                           opt subtitle "HI-TECH Software Omniscient Code Generator (Lite mode) build 49521"
   189  0000                     LATE equ 0F8Dh ;# 
   190                           opt subtitle "HI-TECH Software Omniscient Code Generator (Lite mode) build 49521"
   191  0000                     TRISA equ 0F92h ;# 
   192                           opt subtitle "HI-TECH Software Omniscient Code Generator (Lite mode) build 49521"
   193  0000                     DDRA equ 0F92h ;# 
   194                           opt subtitle "HI-TECH Software Omniscient Code Generator (Lite mode) build 49521"
   195  0000                     TRISB equ 0F93h ;# 
   196                           opt subtitle "HI-TECH Software Omniscient Code Generator (Lite mode) build 49521"
   197  0000                     DDRB equ 0F93h ;# 
   198                           opt subtitle "HI-TECH Software Omniscient Code Generator (Lite mode) build 49521"
   199  0000                     TRISC equ 0F94h ;# 
   200                           opt subtitle "HI-TECH Software Omniscient Code Generator (Lite mode) build 49521"
   201  0000                     DDRC equ 0F94h ;# 
   202                           opt subtitle "HI-TECH Software Omniscient Code Generator (Lite mode) build 49521"
   203  0000                     TRISD equ 0F95h ;# 
   204                           opt subtitle "HI-TECH Software Omniscient Code Generator (Lite mode) build 49521"
   205  0000                     DDRD equ 0F95h ;# 
   206                           opt subtitle "HI-TECH Software Omniscient Code Generator (Lite mode) build 49521"
   207  0000                     TRISE equ 0F96h ;# 
   208                           opt subtitle "HI-TECH Software Omniscient Code Generator (Lite mode) build 49521"
   209  0000                     DDRE equ 0F96h ;# 
   210                           opt subtitle "HI-TECH Software Omniscient Code Generator (Lite mode) build 49521"
   211  0000                     OSCTUNE equ 0F9Bh ;# 
   212                           opt subtitle "HI-TECH Software Omniscient Code Generator (Lite mode) build 49521"
   213  0000                     PIE1 equ 0F9Dh ;# 
   214                           opt subtitle "HI-TECH Software Omniscient Code Generator (Lite mode) build 49521"
   215  0000                     PIR1 equ 0F9Eh ;# 
   216                           opt subtitle "HI-TECH Software Omniscient Code Generator (Lite mode) build 49521"
   217  0000                     IPR1 equ 0F9Fh ;# 
   218                           opt subtitle "HI-TECH Software Omniscient Code Generator (Lite mode) build 49521"
   219  0000                     PIE2 equ 0FA0h ;# 
   220                           opt subtitle "HI-TECH Software Omniscient Code Generator (Lite mode) build 49521"
   221  0000                     PIR2 equ 0FA1h ;# 
   222                           opt subtitle "HI-TECH Software Omniscient Code Generator (Lite mode) build 49521"
   223  0000                     IPR2 equ 0FA2h ;# 
   224                           opt subtitle "HI-TECH Software Omniscient Code Generator (Lite mode) build 49521"
   225  0000                     EECON1 equ 0FA6h ;# 
   226                           opt subtitle "HI-TECH Software Omniscient Code Generator (Lite mode) build 49521"
   227  0000                     EECON2 equ 0FA7h ;# 
   228                           opt subtitle "HI-TECH Software Omniscient Code Generator (Lite mode) build 49521"
   229  0000                     EEDATA equ 0FA8h ;# 
   230                           opt subtitle "HI-TECH Software Omniscient Code Generator (Lite mode) build 49521"
   231  0000                     EEADR equ 0FA9h ;# 
   232                           opt subtitle "HI-TECH Software Omniscient Code Generator (Lite mode) build 49521"
   233  0000                     RCSTA equ 0FABh ;# 
   234                           opt subtitle "HI-TECH Software Omniscient Code Generator (Lite mode) build 49521"
   235  0000                     RCSTA1 equ 0FABh ;# 
   236                           opt subtitle "HI-TECH Software Omniscient Code Generator (Lite mode) build 49521"
   237  0000                     TXSTA equ 0FACh ;# 
   238                           opt subtitle "HI-TECH Software Omniscient Code Generator (Lite mode) build 49521"
   239  0000                     TXSTA1 equ 0FACh ;# 
   240                           opt subtitle "HI-TECH Software Omniscient Code Generator (Lite mode) build 49521"
   241  0000                     TXREG equ 0FADh ;# 
   242                           opt subtitle "HI-TECH Software Omniscient Code Generator (Lite mode) build 49521"
   243  0000                     TXREG1 equ 0FADh ;# 
   244                           opt subtitle "HI-TECH Software Omniscient Code Generator (Lite mode) build 49521"
   245  0000                     RCREG equ 0FAEh ;# 
   246                           opt subtitle "HI-TECH Software Omniscient Code Generator (Lite mode) build 49521"
   247  0000                     RCREG1 equ 0FAEh ;# 
   248                           opt subtitle "HI-TECH Software Omniscient Code Generator (Lite mode) build 49521"
   249  0000                     SPBRG equ 0FAFh ;# 
   250                           opt subtitle "HI-TECH Software Omniscient Code Generator (Lite mode) build 49521"
   251  0000                     SPBRG1 equ 0FAFh ;# 
   252                           opt subtitle "HI-TECH Software Omniscient Code Generator (Lite mode) build 49521"
   253  0000                     SPBRGH equ 0FB0h ;# 
   254                           opt subtitle "HI-TECH Software Omniscient Code Generator (Lite mode) build 49521"
   255  0000                     T3CON equ 0FB1h ;# 
   256                           opt subtitle "HI-TECH Software Omniscient Code Generator (Lite mode) build 49521"
   257  0000                     TMR3 equ 0FB2h ;# 
   258                           opt subtitle "HI-TECH Software Omniscient Code Generator (Lite mode) build 49521"
   259  0000                     TMR3L equ 0FB2h ;# 
   260                           opt subtitle "HI-TECH Software Omniscient Code Generator (Lite mode) build 49521"
   261  0000                     TMR3H equ 0FB3h ;# 
   262                           opt subtitle "HI-TECH Software Omniscient Code Generator (Lite mode) build 49521"
   263  0000                     CMCON equ 0FB4h ;# 
   264                           opt subtitle "HI-TECH Software Omniscient Code Generator (Lite mode) build 49521"
   265  0000                     CVRCON equ 0FB5h ;# 
   266                           opt subtitle "HI-TECH Software Omniscient Code Generator (Lite mode) build 49521"
   267  0000                     ECCP1AS equ 0FB6h ;# 
   268                           opt subtitle "HI-TECH Software Omniscient Code Generator (Lite mode) build 49521"
   269  0000                     CCP1AS equ 0FB6h ;# 
   270                           opt subtitle "HI-TECH Software Omniscient Code Generator (Lite mode) build 49521"
   271  0000                     ECCP1DEL equ 0FB7h ;# 
   272                           opt subtitle "HI-TECH Software Omniscient Code Generator (Lite mode) build 49521"
   273  0000                     CCP1DEL equ 0FB7h ;# 
   274                           opt subtitle "HI-TECH Software Omniscient Code Generator (Lite mode) build 49521"
   275  0000                     BAUDCON equ 0FB8h ;# 
   276                           opt subtitle "HI-TECH Software Omniscient Code Generator (Lite mode) build 49521"
   277  0000                     BAUDCTL equ 0FB8h ;# 
   278                           opt subtitle "HI-TECH Software Omniscient Code Generator (Lite mode) build 49521"
   279  0000                     CCP2CON equ 0FBAh ;# 
   280                           opt subtitle "HI-TECH Software Omniscient Code Generator (Lite mode) build 49521"
   281  0000                     CCPR2 equ 0FBBh ;# 
   282                           opt subtitle "HI-TECH Software Omniscient Code Generator (Lite mode) build 49521"
   283  0000                     CCPR2L equ 0FBBh ;# 
   284                           opt subtitle "HI-TECH Software Omniscient Code Generator (Lite mode) build 49521"
   285  0000                     CCPR2H equ 0FBCh ;# 
   286                           opt subtitle "HI-TECH Software Omniscient Code Generator (Lite mode) build 49521"
   287  0000                     CCP1CON equ 0FBDh ;# 
   288                           opt subtitle "HI-TECH Software Omniscient Code Generator (Lite mode) build 49521"
   289  0000                     ECCP1CON equ 0FBDh ;# 
   290                           opt subtitle "HI-TECH Software Omniscient Code Generator (Lite mode) build 49521"
   291  0000                     CCPR1 equ 0FBEh ;# 
   292                           opt subtitle "HI-TECH Software Omniscient Code Generator (Lite mode) build 49521"
   293  0000                     CCPR1L equ 0FBEh ;# 
   294                           opt subtitle "HI-TECH Software Omniscient Code Generator (Lite mode) build 49521"
   295  0000                     CCPR1H equ 0FBFh ;# 
   296                           opt subtitle "HI-TECH Software Omniscient Code Generator (Lite mode) build 49521"
   297  0000                     ADCON2 equ 0FC0h ;# 
   298                           opt subtitle "HI-TECH Software Omniscient Code Generator (Lite mode) build 49521"
   299  0000                     ADCON1 equ 0FC1h ;# 
   300                           opt subtitle "HI-TECH Software Omniscient Code Generator (Lite mode) build 49521"
   301  0000                     ADCON0 equ 0FC2h ;# 
   302                           opt subtitle "HI-TECH Software Omniscient Code Generator (Lite mode) build 49521"
   303  0000                     ADRES equ 0FC3h ;# 
   304                           opt subtitle "HI-TECH Software Omniscient Code Generator (Lite mode) build 49521"
   305  0000                     ADRESL equ 0FC3h ;# 
   306                           opt subtitle "HI-TECH Software Omniscient Code Generator (Lite mode) build 49521"
   307  0000                     ADRESH equ 0FC4h ;# 
   308                           opt subtitle "HI-TECH Software Omniscient Code Generator (Lite mode) build 49521"
   309  0000                     SSPCON2 equ 0FC5h ;# 
   310                           opt subtitle "HI-TECH Software Omniscient Code Generator (Lite mode) build 49521"
   311  0000                     SSPCON1 equ 0FC6h ;# 
   312                           opt subtitle "HI-TECH Software Omniscient Code Generator (Lite mode) build 49521"
   313  0000                     SSPSTAT equ 0FC7h ;# 
   314                           opt subtitle "HI-TECH Software Omniscient Code Generator (Lite mode) build 49521"
   315  0000                     SSPADD equ 0FC8h ;# 
   316                           opt subtitle "HI-TECH Software Omniscient Code Generator (Lite mode) build 49521"
   317  0000                     SSPBUF equ 0FC9h ;# 
   318                           opt subtitle "HI-TECH Software Omniscient Code Generator (Lite mode) build 49521"
   319  0000                     T2CON equ 0FCAh ;# 
   320                           opt subtitle "HI-TECH Software Omniscient Code Generator (Lite mode) build 49521"
   321  0000                     PR2 equ 0FCBh ;# 
   322                           opt subtitle "HI-TECH Software Omniscient Code Generator (Lite mode) build 49521"
   323  0000                     MEMCON equ 0FCBh ;# 
   324                           opt subtitle "HI-TECH Software Omniscient Code Generator (Lite mode) build 49521"
   325  0000                     TMR2 equ 0FCCh ;# 
   326                           opt subtitle "HI-TECH Software Omniscient Code Generator (Lite mode) build 49521"
   327  0000                     T1CON equ 0FCDh ;# 
   328                           opt subtitle "HI-TECH Software Omniscient Code Generator (Lite mode) build 49521"
   329  0000                     TMR1 equ 0FCEh ;# 
   330                           opt subtitle "HI-TECH Software Omniscient Code Generator (Lite mode) build 49521"
   331  0000                     TMR1L equ 0FCEh ;# 
   332                           opt subtitle "HI-TECH Software Omniscient Code Generator (Lite mode) build 49521"
   333  0000                     TMR1H equ 0FCFh ;# 
   334                           opt subtitle "HI-TECH Software Omniscient Code Generator (Lite mode) build 49521"
   335  0000                     RCON equ 0FD0h ;# 
   336                           opt subtitle "HI-TECH Software Omniscient Code Generator (Lite mode) build 49521"
   337  0000                     WDTCON equ 0FD1h ;# 
   338                           opt subtitle "HI-TECH Software Omniscient Code Generator (Lite mode) build 49521"
   339  0000                     HLVDCON equ 0FD2h ;# 
   340                           opt subtitle "HI-TECH Software Omniscient Code Generator (Lite mode) build 49521"
   341  0000                     LVDCON equ 0FD2h ;# 
   342                           opt subtitle "HI-TECH Software Omniscient Code Generator (Lite mode) build 49521"
   343  0000                     OSCCON equ 0FD3h ;# 
   344                           opt subtitle "HI-TECH Software Omniscient Code Generator (Lite mode) build 49521"
   345  0000                     T0CON equ 0FD5h ;# 
   346                           opt subtitle "HI-TECH Software Omniscient Code Generator (Lite mode) build 49521"
   347  0000                     TMR0 equ 0FD6h ;# 
   348                           opt subtitle "HI-TECH Software Omniscient Code Generator (Lite mode) build 49521"
   349  0000                     TMR0L equ 0FD6h ;# 
   350                           opt subtitle "HI-TECH Software Omniscient Code Generator (Lite mode) build 49521"
   351  0000                     TMR0H equ 0FD7h ;# 
   352                           opt subtitle "HI-TECH Software Omniscient Code Generator (Lite mode) build 49521"
   353  0000                     STATUS equ 0FD8h ;# 
   354                           opt subtitle "HI-TECH Software Omniscient Code Generator (Lite mode) build 49521"
   355  0000                     FSR2 equ 0FD9h ;# 
   356                           opt subtitle "HI-TECH Software Omniscient Code Generator (Lite mode) build 49521"
   357  0000                     FSR2L equ 0FD9h ;# 
   358                           opt subtitle "HI-TECH Software Omniscient Code Generator (Lite mode) build 49521"
   359  0000                     FSR2H equ 0FDAh ;# 
   360                           opt subtitle "HI-TECH Software Omniscient Code Generator (Lite mode) build 49521"
   361  0000                     PLUSW2 equ 0FDBh ;# 
   362                           opt subtitle "HI-TECH Software Omniscient Code Generator (Lite mode) build 49521"
   363  0000                     PREINC2 equ 0FDCh ;# 
   364                           opt subtitle "HI-TECH Software Omniscient Code Generator (Lite mode) build 49521"
   365  0000                     POSTDEC2 equ 0FDDh ;# 
   366                           opt subtitle "HI-TECH Software Omniscient Code Generator (Lite mode) build 49521"
   367  0000                     POSTINC2 equ 0FDEh ;# 
   368                           opt subtitle "HI-TECH Software Omniscient Code Generator (Lite mode) build 49521"
   369  0000                     INDF2 equ 0FDFh ;# 
   370                           opt subtitle "HI-TECH Software Omniscient Code Generator (Lite mode) build 49521"
   371  0000                     BSR equ 0FE0h ;# 
   372                           opt subtitle "HI-TECH Software Omniscient Code Generator (Lite mode) build 49521"
   373  0000                     FSR1 equ 0FE1h ;# 
   374                           opt subtitle "HI-TECH Software Omniscient Code Generator (Lite mode) build 49521"
   375  0000                     FSR1L equ 0FE1h ;# 
   376                           opt subtitle "HI-TECH Software Omniscient Code Generator (Lite mode) build 49521"
   377  0000                     FSR1H equ 0FE2h ;# 
   378                           opt subtitle "HI-TECH Software Omniscient Code Generator (Lite mode) build 49521"
   379  0000                     PLUSW1 equ 0FE3h ;# 
   380                           opt subtitle "HI-TECH Software Omniscient Code Generator (Lite mode) build 49521"
   381  0000                     PREINC1 equ 0FE4h ;# 
   382                           opt subtitle "HI-TECH Software Omniscient Code Generator (Lite mode) build 49521"
   383  0000                     POSTDEC1 equ 0FE5h ;# 
   384                           opt subtitle "HI-TECH Software Omniscient Code Generator (Lite mode) build 49521"
   385  0000                     POSTINC1 equ 0FE6h ;# 
   386                           opt subtitle "HI-TECH Software Omniscient Code Generator (Lite mode) build 49521"
   387  0000                     INDF1 equ 0FE7h ;# 
   388                           opt subtitle "HI-TECH Software Omniscient Code Generator (Lite mode) build 49521"
   389  0000                     WREG equ 0FE8h ;# 
   390                           opt subtitle "HI-TECH Software Omniscient Code Generator (Lite mode) build 49521"
   391  0000                     FSR0 equ 0FE9h ;# 
   392                           opt subtitle "HI-TECH Software Omniscient Code Generator (Lite mode) build 49521"
   393  0000                     FSR0L equ 0FE9h ;# 
   394                           opt subtitle "HI-TECH Software Omniscient Code Generator (Lite mode) build 49521"
   395  0000                     FSR0H equ 0FEAh ;# 
   396                           opt subtitle "HI-TECH Software Omniscient Code Generator (Lite mode) build 49521"
   397  0000                     PLUSW0 equ 0FEBh ;# 
   398                           opt subtitle "HI-TECH Software Omniscient Code Generator (Lite mode) build 49521"
   399  0000                     PREINC0 equ 0FECh ;# 
   400                           opt subtitle "HI-TECH Software Omniscient Code Generator (Lite mode) build 49521"
   401  0000                     POSTDEC0 equ 0FEDh ;# 
   402                           opt subtitle "HI-TECH Software Omniscient Code Generator (Lite mode) build 49521"
   403  0000                     POSTINC0 equ 0FEEh ;# 
   404                           opt subtitle "HI-TECH Software Omniscient Code Generator (Lite mode) build 49521"
   405  0000                     INDF0 equ 0FEFh ;# 
   406                           opt subtitle "HI-TECH Software Omniscient Code Generator (Lite mode) build 49521"
   407  0000                     INTCON3 equ 0FF0h ;# 
   408                           opt subtitle "HI-TECH Software Omniscient Code Generator (Lite mode) build 49521"
   409  0000                     INTCON2 equ 0FF1h ;# 
   410                           opt subtitle "HI-TECH Software Omniscient Code Generator (Lite mode) build 49521"
   411  0000                     INTCON equ 0FF2h ;# 
   412                           opt subtitle "HI-TECH Software Omniscient Code Generator (Lite mode) build 49521"
   413  0000                     PROD equ 0FF3h ;# 
   414                           opt subtitle "HI-TECH Software Omniscient Code Generator (Lite mode) build 49521"
   415  0000                     PRODL equ 0FF3h ;# 
   416                           opt subtitle "HI-TECH Software Omniscient Code Generator (Lite mode) build 49521"
   417  0000                     PRODH equ 0FF4h ;# 
   418                           opt subtitle "HI-TECH Software Omniscient Code Generator (Lite mode) build 49521"
   419  0000                     TABLAT equ 0FF5h ;# 
   420                           opt subtitle "HI-TECH Software Omniscient Code Generator (Lite mode) build 49521"
   421  0000                     TBLPTR equ 0FF6h ;# 
   422                           opt subtitle "HI-TECH Software Omniscient Code Generator (Lite mode) build 49521"
   423  0000                     TBLPTRL equ 0FF6h ;# 
   424                           opt subtitle "HI-TECH Software Omniscient Code Generator (Lite mode) build 49521"
   425  0000                     TBLPTRH equ 0FF7h ;# 
   426                           opt subtitle "HI-TECH Software Omniscient Code Generator (Lite mode) build 49521"
   427  0000                     TBLPTRU equ 0FF8h ;# 
   428                           opt subtitle "HI-TECH Software Omniscient Code Generator (Lite mode) build 49521"
   429  0000                     PCLAT equ 0FF9h ;# 
   430                           opt subtitle "HI-TECH Software Omniscient Code Generator (Lite mode) build 49521"
   431  0000                     PC equ 0FF9h ;# 
   432                           opt subtitle "HI-TECH Software Omniscient Code Generator (Lite mode) build 49521"
   433  0000                     PCL equ 0FF9h ;# 
   434                           opt subtitle "HI-TECH Software Omniscient Code Generator (Lite mode) build 49521"
   435  0000                     PCLATH equ 0FFAh ;# 
   436                           opt subtitle "HI-TECH Software Omniscient Code Generator (Lite mode) build 49521"
   437  0000                     PCLATU equ 0FFBh ;# 
   438                           opt subtitle "HI-TECH Software Omniscient Code Generator (Lite mode) build 49521"
   439  0000                     STKPTR equ 0FFCh ;# 
   440                           opt subtitle "HI-TECH Software Omniscient Code Generator (Lite mode) build 49521"
   441  0000                     TOS equ 0FFDh ;# 
   442                           opt subtitle "HI-TECH Software Omniscient Code Generator (Lite mode) build 49521"
   443  0000                     TOSL equ 0FFDh ;# 
   444                           opt subtitle "HI-TECH Software Omniscient Code Generator (Lite mode) build 49521"
   445  0000                     TOSH equ 0FFEh ;# 
   446                           opt subtitle "HI-TECH Software Omniscient Code Generator (Lite mode) build 49521"
   447  0000                     TOSU equ 0FFFh ;# 
   448                           opt subtitle "HI-TECH Software Omniscient Code Generator (Lite mode) build 49521"
   449  0000                     SPPDATA equ 0F62h ;# 
   450                           opt subtitle "HI-TECH Software Omniscient Code Generator (Lite mode) build 49521"
   451  0000                     SPPCFG equ 0F63h ;# 
   452                           opt subtitle "HI-TECH Software Omniscient Code Generator (Lite mode) build 49521"
   453  0000                     SPPEPS equ 0F64h ;# 
   454                           opt subtitle "HI-TECH Software Omniscient Code Generator (Lite mode) build 49521"
   455  0000                     SPPCON equ 0F65h ;# 
   456                           opt subtitle "HI-TECH Software Omniscient Code Generator (Lite mode) build 49521"
   457  0000                     UFRM equ 0F66h ;# 
   458                           opt subtitle "HI-TECH Software Omniscient Code Generator (Lite mode) build 49521"
   459  0000                     UFRML equ 0F66h ;# 
   460                           opt subtitle "HI-TECH Software Omniscient Code Generator (Lite mode) build 49521"
   461  0000                     UFRMH equ 0F67h ;# 
   462                           opt subtitle "HI-TECH Software Omniscient Code Generator (Lite mode) build 49521"
   463  0000                     UIR equ 0F68h ;# 
   464                           opt subtitle "HI-TECH Software Omniscient Code Generator (Lite mode) build 49521"
   465  0000                     UIE equ 0F69h ;# 
   466                           opt subtitle "HI-TECH Software Omniscient Code Generator (Lite mode) build 49521"
   467  0000                     UEIR equ 0F6Ah ;# 
   468                           opt subtitle "HI-TECH Software Omniscient Code Generator (Lite mode) build 49521"
   469  0000                     UEIE equ 0F6Bh ;# 
   470                           opt subtitle "HI-TECH Software Omniscient Code Generator (Lite mode) build 49521"
   471  0000                     USTAT equ 0F6Ch ;# 
   472                           opt subtitle "HI-TECH Software Omniscient Code Generator (Lite mode) build 49521"
   473  0000                     UCON equ 0F6Dh ;# 
   474                           opt subtitle "HI-TECH Software Omniscient Code Generator (Lite mode) build 49521"
   475  0000                     UADDR equ 0F6Eh ;# 
   476                           opt subtitle "HI-TECH Software Omniscient Code Generator (Lite mode) build 49521"
   477  0000                     UCFG equ 0F6Fh ;# 
   478                           opt subtitle "HI-TECH Software Omniscient Code Generator (Lite mode) build 49521"
   479  0000                     UEP0 equ 0F70h ;# 
   480                           opt subtitle "HI-TECH Software Omniscient Code Generator (Lite mode) build 49521"
   481  0000                     UEP1 equ 0F71h ;# 
   482                           opt subtitle "HI-TECH Software Omniscient Code Generator (Lite mode) build 49521"
   483  0000                     UEP2 equ 0F72h ;# 
   484                           opt subtitle "HI-TECH Software Omniscient Code Generator (Lite mode) build 49521"
   485  0000                     UEP3 equ 0F73h ;# 
   486                           opt subtitle "HI-TECH Software Omniscient Code Generator (Lite mode) build 49521"
   487  0000                     UEP4 equ 0F74h ;# 
   488                           opt subtitle "HI-TECH Software Omniscient Code Generator (Lite mode) build 49521"
   489  0000                     UEP5 equ 0F75h ;# 
   490                           opt subtitle "HI-TECH Software Omniscient Code Generator (Lite mode) build 49521"
   491  0000                     UEP6 equ 0F76h ;# 
   492                           opt subtitle "HI-TECH Software Omniscient Code Generator (Lite mode) build 49521"
   493  0000                     UEP7 equ 0F77h ;# 
   494                           opt subtitle "HI-TECH Software Omniscient Code Generator (Lite mode) build 49521"
   495  0000                     UEP8 equ 0F78h ;# 
   496                           opt subtitle "HI-TECH Software Omniscient Code Generator (Lite mode) build 49521"
   497  0000                     UEP9 equ 0F79h ;# 
   498                           opt subtitle "HI-TECH Software Omniscient Code Generator (Lite mode) build 49521"
   499  0000                     UEP10 equ 0F7Ah ;# 
   500                           opt subtitle "HI-TECH Software Omniscient Code Generator (Lite mode) build 49521"
   501  0000                     UEP11 equ 0F7Bh ;# 
   502                           opt subtitle "HI-TECH Software Omniscient Code Generator (Lite mode) build 49521"
   503  0000                     UEP12 equ 0F7Ch ;# 
   504                           opt subtitle "HI-TECH Software Omniscient Code Generator (Lite mode) build 49521"
   505  0000                     UEP13 equ 0F7Dh ;# 
   506                           opt subtitle "HI-TECH Software Omniscient Code Generator (Lite mode) build 49521"
   507  0000                     UEP14 equ 0F7Eh ;# 
   508                           opt subtitle "HI-TECH Software Omniscient Code Generator (Lite mode) build 49521"
   509  0000                     UEP15 equ 0F7Fh ;# 
   510                           opt subtitle "HI-TECH Software Omniscient Code Generator (Lite mode) build 49521"
   511  0000                     PORTA equ 0F80h ;# 
   512                           opt subtitle "HI-TECH Software Omniscient Code Generator (Lite mode) build 49521"
   513  0000                     PORTB equ 0F81h ;# 
   514                           opt subtitle "HI-TECH Software Omniscient Code Generator (Lite mode) build 49521"
   515  0000                     PORTC equ 0F82h ;# 
   516                           opt subtitle "HI-TECH Software Omniscient Code Generator (Lite mode) build 49521"
   517  0000                     PORTD equ 0F83h ;# 
   518                           opt subtitle "HI-TECH Software Omniscient Code Generator (Lite mode) build 49521"
   519  0000                     PORTE equ 0F84h ;# 
   520                           opt subtitle "HI-TECH Software Omniscient Code Generator (Lite mode) build 49521"
   521  0000                     LATA equ 0F89h ;# 
   522                           opt subtitle "HI-TECH Software Omniscient Code Generator (Lite mode) build 49521"
   523  0000                     LATB equ 0F8Ah ;# 
   524                           opt subtitle "HI-TECH Software Omniscient Code Generator (Lite mode) build 49521"
   525  0000                     LATC equ 0F8Bh ;# 
   526                           opt subtitle "HI-TECH Software Omniscient Code Generator (Lite mode) build 49521"
   527  0000                     LATD equ 0F8Ch ;# 
   528                           opt subtitle "HI-TECH Software Omniscient Code Generator (Lite mode) build 49521"
   529  0000                     LATE equ 0F8Dh ;# 
   530                           opt subtitle "HI-TECH Software Omniscient Code Generator (Lite mode) build 49521"
   531  0000                     TRISA equ 0F92h ;# 
   532                           opt subtitle "HI-TECH Software Omniscient Code Generator (Lite mode) build 49521"
   533  0000                     DDRA equ 0F92h ;# 
   534                           opt subtitle "HI-TECH Software Omniscient Code Generator (Lite mode) build 49521"
   535  0000                     TRISB equ 0F93h ;# 
   536                           opt subtitle "HI-TECH Software Omniscient Code Generator (Lite mode) build 49521"
   537  0000                     DDRB equ 0F93h ;# 
   538                           opt subtitle "HI-TECH Software Omniscient Code Generator (Lite mode) build 49521"
   539  0000                     TRISC equ 0F94h ;# 
   540                           opt subtitle "HI-TECH Software Omniscient Code Generator (Lite mode) build 49521"
   541  0000                     DDRC equ 0F94h ;# 
   542                           opt subtitle "HI-TECH Software Omniscient Code Generator (Lite mode) build 49521"
   543  0000                     TRISD equ 0F95h ;# 
   544                           opt subtitle "HI-TECH Software Omniscient Code Generator (Lite mode) build 49521"
   545  0000                     DDRD equ 0F95h ;# 
   546                           opt subtitle "HI-TECH Software Omniscient Code Generator (Lite mode) build 49521"
   547  0000                     TRISE equ 0F96h ;# 
   548                           opt subtitle "HI-TECH Software Omniscient Code Generator (Lite mode) build 49521"
   549  0000                     DDRE equ 0F96h ;# 
   550                           opt subtitle "HI-TECH Software Omniscient Code Generator (Lite mode) build 49521"
   551  0000                     OSCTUNE equ 0F9Bh ;# 
   552                           opt subtitle "HI-TECH Software Omniscient Code Generator (Lite mode) build 49521"
   553  0000                     PIE1 equ 0F9Dh ;# 
   554                           opt subtitle "HI-TECH Software Omniscient Code Generator (Lite mode) build 49521"
   555  0000                     PIR1 equ 0F9Eh ;# 
   556                           opt subtitle "HI-TECH Software Omniscient Code Generator (Lite mode) build 49521"
   557  0000                     IPR1 equ 0F9Fh ;# 
   558                           opt subtitle "HI-TECH Software Omniscient Code Generator (Lite mode) build 49521"
   559  0000                     PIE2 equ 0FA0h ;# 
   560                           opt subtitle "HI-TECH Software Omniscient Code Generator (Lite mode) build 49521"
   561  0000                     PIR2 equ 0FA1h ;# 
   562                           opt subtitle "HI-TECH Software Omniscient Code Generator (Lite mode) build 49521"
   563  0000                     IPR2 equ 0FA2h ;# 
   564                           opt subtitle "HI-TECH Software Omniscient Code Generator (Lite mode) build 49521"
   565  0000                     EECON1 equ 0FA6h ;# 
   566                           opt subtitle "HI-TECH Software Omniscient Code Generator (Lite mode) build 49521"
   567  0000                     EECON2 equ 0FA7h ;# 
   568                           opt subtitle "HI-TECH Software Omniscient Code Generator (Lite mode) build 49521"
   569  0000                     EEDATA equ 0FA8h ;# 
   570                           opt subtitle "HI-TECH Software Omniscient Code Generator (Lite mode) build 49521"
   571  0000                     EEADR equ 0FA9h ;# 
   572                           opt subtitle "HI-TECH Software Omniscient Code Generator (Lite mode) build 49521"
   573  0000                     RCSTA equ 0FABh ;# 
   574                           opt subtitle "HI-TECH Software Omniscient Code Generator (Lite mode) build 49521"
   575  0000                     RCSTA1 equ 0FABh ;# 
   576                           opt subtitle "HI-TECH Software Omniscient Code Generator (Lite mode) build 49521"
   577  0000                     TXSTA equ 0FACh ;# 
   578                           opt subtitle "HI-TECH Software Omniscient Code Generator (Lite mode) build 49521"
   579  0000                     TXSTA1 equ 0FACh ;# 
   580                           opt subtitle "HI-TECH Software Omniscient Code Generator (Lite mode) build 49521"
   581  0000                     TXREG equ 0FADh ;# 
   582                           opt subtitle "HI-TECH Software Omniscient Code Generator (Lite mode) build 49521"
   583  0000                     TXREG1 equ 0FADh ;# 
   584                           opt subtitle "HI-TECH Software Omniscient Code Generator (Lite mode) build 49521"
   585  0000                     RCREG equ 0FAEh ;# 
   586                           opt subtitle "HI-TECH Software Omniscient Code Generator (Lite mode) build 49521"
   587  0000                     RCREG1 equ 0FAEh ;# 
   588                           opt subtitle "HI-TECH Software Omniscient Code Generator (Lite mode) build 49521"
   589  0000                     SPBRG equ 0FAFh ;# 
   590                           opt subtitle "HI-TECH Software Omniscient Code Generator (Lite mode) build 49521"
   591  0000                     SPBRG1 equ 0FAFh ;# 
   592                           opt subtitle "HI-TECH Software Omniscient Code Generator (Lite mode) build 49521"
   593  0000                     SPBRGH equ 0FB0h ;# 
   594                           opt subtitle "HI-TECH Software Omniscient Code Generator (Lite mode) build 49521"
   595  0000                     T3CON equ 0FB1h ;# 
   596                           opt subtitle "HI-TECH Software Omniscient Code Generator (Lite mode) build 49521"
   597  0000                     TMR3 equ 0FB2h ;# 
   598                           opt subtitle "HI-TECH Software Omniscient Code Generator (Lite mode) build 49521"
   599  0000                     TMR3L equ 0FB2h ;# 
   600                           opt subtitle "HI-TECH Software Omniscient Code Generator (Lite mode) build 49521"
   601  0000                     TMR3H equ 0FB3h ;# 
   602                           opt subtitle "HI-TECH Software Omniscient Code Generator (Lite mode) build 49521"
   603  0000                     CMCON equ 0FB4h ;# 
   604                           opt subtitle "HI-TECH Software Omniscient Code Generator (Lite mode) build 49521"
   605  0000                     CVRCON equ 0FB5h ;# 
   606                           opt subtitle "HI-TECH Software Omniscient Code Generator (Lite mode) build 49521"
   607  0000                     ECCP1AS equ 0FB6h ;# 
   608                           opt subtitle "HI-TECH Software Omniscient Code Generator (Lite mode) build 49521"
   609  0000                     CCP1AS equ 0FB6h ;# 
   610                           opt subtitle "HI-TECH Software Omniscient Code Generator (Lite mode) build 49521"
   611  0000                     ECCP1DEL equ 0FB7h ;# 
   612                           opt subtitle "HI-TECH Software Omniscient Code Generator (Lite mode) build 49521"
   613  0000                     CCP1DEL equ 0FB7h ;# 
   614                           opt subtitle "HI-TECH Software Omniscient Code Generator (Lite mode) build 49521"
   615  0000                     BAUDCON equ 0FB8h ;# 
   616                           opt subtitle "HI-TECH Software Omniscient Code Generator (Lite mode) build 49521"
   617  0000                     BAUDCTL equ 0FB8h ;# 
   618                           opt subtitle "HI-TECH Software Omniscient Code Generator (Lite mode) build 49521"
   619  0000                     CCP2CON equ 0FBAh ;# 
   620                           opt subtitle "HI-TECH Software Omniscient Code Generator (Lite mode) build 49521"
   621  0000                     CCPR2 equ 0FBBh ;# 
   622                           opt subtitle "HI-TECH Software Omniscient Code Generator (Lite mode) build 49521"
   623  0000                     CCPR2L equ 0FBBh ;# 
   624                           opt subtitle "HI-TECH Software Omniscient Code Generator (Lite mode) build 49521"
   625  0000                     CCPR2H equ 0FBCh ;# 
   626                           opt subtitle "HI-TECH Software Omniscient Code Generator (Lite mode) build 49521"
   627  0000                     CCP1CON equ 0FBDh ;# 
   628                           opt subtitle "HI-TECH Software Omniscient Code Generator (Lite mode) build 49521"
   629  0000                     ECCP1CON equ 0FBDh ;# 
   630                           opt subtitle "HI-TECH Software Omniscient Code Generator (Lite mode) build 49521"
   631  0000                     CCPR1 equ 0FBEh ;# 
   632                           opt subtitle "HI-TECH Software Omniscient Code Generator (Lite mode) build 49521"
   633  0000                     CCPR1L equ 0FBEh ;# 
   634                           opt subtitle "HI-TECH Software Omniscient Code Generator (Lite mode) build 49521"
   635  0000                     CCPR1H equ 0FBFh ;# 
   636                           opt subtitle "HI-TECH Software Omniscient Code Generator (Lite mode) build 49521"
   637  0000                     ADCON2 equ 0FC0h ;# 
   638                           opt subtitle "HI-TECH Software Omniscient Code Generator (Lite mode) build 49521"
   639  0000                     ADCON1 equ 0FC1h ;# 
   640                           opt subtitle "HI-TECH Software Omniscient Code Generator (Lite mode) build 49521"
   641  0000                     ADCON0 equ 0FC2h ;# 
   642                           opt subtitle "HI-TECH Software Omniscient Code Generator (Lite mode) build 49521"
   643  0000                     ADRES equ 0FC3h ;# 
   644                           opt subtitle "HI-TECH Software Omniscient Code Generator (Lite mode) build 49521"
   645  0000                     ADRESL equ 0FC3h ;# 
   646                           opt subtitle "HI-TECH Software Omniscient Code Generator (Lite mode) build 49521"
   647  0000                     ADRESH equ 0FC4h ;# 
   648                           opt subtitle "HI-TECH Software Omniscient Code Generator (Lite mode) build 49521"
   649  0000                     SSPCON2 equ 0FC5h ;# 
   650                           opt subtitle "HI-TECH Software Omniscient Code Generator (Lite mode) build 49521"
   651  0000                     SSPCON1 equ 0FC6h ;# 
   652                           opt subtitle "HI-TECH Software Omniscient Code Generator (Lite mode) build 49521"
   653  0000                     SSPSTAT equ 0FC7h ;# 
   654                           opt subtitle "HI-TECH Software Omniscient Code Generator (Lite mode) build 49521"
   655  0000                     SSPADD equ 0FC8h ;# 
   656                           opt subtitle "HI-TECH Software Omniscient Code Generator (Lite mode) build 49521"
   657  0000                     SSPBUF equ 0FC9h ;# 
   658                           opt subtitle "HI-TECH Software Omniscient Code Generator (Lite mode) build 49521"
   659  0000                     T2CON equ 0FCAh ;# 
   660                           opt subtitle "HI-TECH Software Omniscient Code Generator (Lite mode) build 49521"
   661  0000                     PR2 equ 0FCBh ;# 
   662                           opt subtitle "HI-TECH Software Omniscient Code Generator (Lite mode) build 49521"
   663  0000                     MEMCON equ 0FCBh ;# 
   664                           opt subtitle "HI-TECH Software Omniscient Code Generator (Lite mode) build 49521"
   665  0000                     TMR2 equ 0FCCh ;# 
   666                           opt subtitle "HI-TECH Software Omniscient Code Generator (Lite mode) build 49521"
   667  0000                     T1CON equ 0FCDh ;# 
   668                           opt subtitle "HI-TECH Software Omniscient Code Generator (Lite mode) build 49521"
   669  0000                     TMR1 equ 0FCEh ;# 
   670                           opt subtitle "HI-TECH Software Omniscient Code Generator (Lite mode) build 49521"
   671  0000                     TMR1L equ 0FCEh ;# 
   672                           opt subtitle "HI-TECH Software Omniscient Code Generator (Lite mode) build 49521"
   673  0000                     TMR1H equ 0FCFh ;# 
   674                           opt subtitle "HI-TECH Software Omniscient Code Generator (Lite mode) build 49521"
   675  0000                     RCON equ 0FD0h ;# 
   676                           opt subtitle "HI-TECH Software Omniscient Code Generator (Lite mode) build 49521"
   677  0000                     WDTCON equ 0FD1h ;# 
   678                           opt subtitle "HI-TECH Software Omniscient Code Generator (Lite mode) build 49521"
   679  0000                     HLVDCON equ 0FD2h ;# 
   680                           opt subtitle "HI-TECH Software Omniscient Code Generator (Lite mode) build 49521"
   681  0000                     LVDCON equ 0FD2h ;# 
   682                           opt subtitle "HI-TECH Software Omniscient Code Generator (Lite mode) build 49521"
   683  0000                     OSCCON equ 0FD3h ;# 
   684                           opt subtitle "HI-TECH Software Omniscient Code Generator (Lite mode) build 49521"
   685  0000                     T0CON equ 0FD5h ;# 
   686                           opt subtitle "HI-TECH Software Omniscient Code Generator (Lite mode) build 49521"
   687  0000                     TMR0 equ 0FD6h ;# 
   688                           opt subtitle "HI-TECH Software Omniscient Code Generator (Lite mode) build 49521"
   689  0000                     TMR0L equ 0FD6h ;# 
   690                           opt subtitle "HI-TECH Software Omniscient Code Generator (Lite mode) build 49521"
   691  0000                     TMR0H equ 0FD7h ;# 
   692                           opt subtitle "HI-TECH Software Omniscient Code Generator (Lite mode) build 49521"
   693  0000                     STATUS equ 0FD8h ;# 
   694                           opt subtitle "HI-TECH Software Omniscient Code Generator (Lite mode) build 49521"
   695  0000                     FSR2 equ 0FD9h ;# 
   696                           opt subtitle "HI-TECH Software Omniscient Code Generator (Lite mode) build 49521"
   697  0000                     FSR2L equ 0FD9h ;# 
   698                           opt subtitle "HI-TECH Software Omniscient Code Generator (Lite mode) build 49521"
   699  0000                     FSR2H equ 0FDAh ;# 
   700                           opt subtitle "HI-TECH Software Omniscient Code Generator (Lite mode) build 49521"
   701  0000                     PLUSW2 equ 0FDBh ;# 
   702                           opt subtitle "HI-TECH Software Omniscient Code Generator (Lite mode) build 49521"
   703  0000                     PREINC2 equ 0FDCh ;# 
   704                           opt subtitle "HI-TECH Software Omniscient Code Generator (Lite mode) build 49521"
   705  0000                     POSTDEC2 equ 0FDDh ;# 
   706                           opt subtitle "HI-TECH Software Omniscient Code Generator (Lite mode) build 49521"
   707  0000                     POSTINC2 equ 0FDEh ;# 
   708                           opt subtitle "HI-TECH Software Omniscient Code Generator (Lite mode) build 49521"
   709  0000                     INDF2 equ 0FDFh ;# 
   710                           opt subtitle "HI-TECH Software Omniscient Code Generator (Lite mode) build 49521"
   711  0000                     BSR equ 0FE0h ;# 
   712                           opt subtitle "HI-TECH Software Omniscient Code Generator (Lite mode) build 49521"
   713  0000                     FSR1 equ 0FE1h ;# 
   714                           opt subtitle "HI-TECH Software Omniscient Code Generator (Lite mode) build 49521"
   715  0000                     FSR1L equ 0FE1h ;# 
   716                           opt subtitle "HI-TECH Software Omniscient Code Generator (Lite mode) build 49521"
   717  0000                     FSR1H equ 0FE2h ;# 
   718                           opt subtitle "HI-TECH Software Omniscient Code Generator (Lite mode) build 49521"
   719  0000                     PLUSW1 equ 0FE3h ;# 
   720                           opt subtitle "HI-TECH Software Omniscient Code Generator (Lite mode) build 49521"
   721  0000                     PREINC1 equ 0FE4h ;# 
   722                           opt subtitle "HI-TECH Software Omniscient Code Generator (Lite mode) build 49521"
   723  0000                     POSTDEC1 equ 0FE5h ;# 
   724                           opt subtitle "HI-TECH Software Omniscient Code Generator (Lite mode) build 49521"
   725  0000                     POSTINC1 equ 0FE6h ;# 
   726                           opt subtitle "HI-TECH Software Omniscient Code Generator (Lite mode) build 49521"
   727  0000                     INDF1 equ 0FE7h ;# 
   728                           opt subtitle "HI-TECH Software Omniscient Code Generator (Lite mode) build 49521"
   729  0000                     WREG equ 0FE8h ;# 
   730                           opt subtitle "HI-TECH Software Omniscient Code Generator (Lite mode) build 49521"
   731  0000                     FSR0 equ 0FE9h ;# 
   732                           opt subtitle "HI-TECH Software Omniscient Code Generator (Lite mode) build 49521"
   733  0000                     FSR0L equ 0FE9h ;# 
   734                           opt subtitle "HI-TECH Software Omniscient Code Generator (Lite mode) build 49521"
   735  0000                     FSR0H equ 0FEAh ;# 
   736                           opt subtitle "HI-TECH Software Omniscient Code Generator (Lite mode) build 49521"
   737  0000                     PLUSW0 equ 0FEBh ;# 
   738                           opt subtitle "HI-TECH Software Omniscient Code Generator (Lite mode) build 49521"
   739  0000                     PREINC0 equ 0FECh ;# 
   740                           opt subtitle "HI-TECH Software Omniscient Code Generator (Lite mode) build 49521"
   741  0000                     POSTDEC0 equ 0FEDh ;# 
   742                           opt subtitle "HI-TECH Software Omniscient Code Generator (Lite mode) build 49521"
   743  0000                     POSTINC0 equ 0FEEh ;# 
   744                           opt subtitle "HI-TECH Software Omniscient Code Generator (Lite mode) build 49521"
   745  0000                     INDF0 equ 0FEFh ;# 
   746                           opt subtitle "HI-TECH Software Omniscient Code Generator (Lite mode) build 49521"
   747  0000                     INTCON3 equ 0FF0h ;# 
   748                           opt subtitle "HI-TECH Software Omniscient Code Generator (Lite mode) build 49521"
   749  0000                     INTCON2 equ 0FF1h ;# 
   750                           opt subtitle "HI-TECH Software Omniscient Code Generator (Lite mode) build 49521"
   751  0000                     INTCON equ 0FF2h ;# 
   752                           opt subtitle "HI-TECH Software Omniscient Code Generator (Lite mode) build 49521"
   753  0000                     PROD equ 0FF3h ;# 
   754                           opt subtitle "HI-TECH Software Omniscient Code Generator (Lite mode) build 49521"
   755  0000                     PRODL equ 0FF3h ;# 
   756                           opt subtitle "HI-TECH Software Omniscient Code Generator (Lite mode) build 49521"
   757  0000                     PRODH equ 0FF4h ;# 
   758                           opt subtitle "HI-TECH Software Omniscient Code Generator (Lite mode) build 49521"
   759  0000                     TABLAT equ 0FF5h ;# 
   760                           opt subtitle "HI-TECH Software Omniscient Code Generator (Lite mode) build 49521"
   761  0000                     TBLPTR equ 0FF6h ;# 
   762                           opt subtitle "HI-TECH Software Omniscient Code Generator (Lite mode) build 49521"
   763  0000                     TBLPTRL equ 0FF6h ;# 
   764                           opt subtitle "HI-TECH Software Omniscient Code Generator (Lite mode) build 49521"
   765  0000                     TBLPTRH equ 0FF7h ;# 
   766                           opt subtitle "HI-TECH Software Omniscient Code Generator (Lite mode) build 49521"
   767  0000                     TBLPTRU equ 0FF8h ;# 
   768                           opt subtitle "HI-TECH Software Omniscient Code Generator (Lite mode) build 49521"
   769  0000                     PCLAT equ 0FF9h ;# 
   770                           opt subtitle "HI-TECH Software Omniscient Code Generator (Lite mode) build 49521"
   771  0000                     PC equ 0FF9h ;# 
   772                           opt subtitle "HI-TECH Software Omniscient Code Generator (Lite mode) build 49521"
   773  0000                     PCL equ 0FF9h ;# 
   774                           opt subtitle "HI-TECH Software Omniscient Code Generator (Lite mode) build 49521"
   775  0000                     PCLATH equ 0FFAh ;# 
   776                           opt subtitle "HI-TECH Software Omniscient Code Generator (Lite mode) build 49521"
   777  0000                     PCLATU equ 0FFBh ;# 
   778                           opt subtitle "HI-TECH Software Omniscient Code Generator (Lite mode) build 49521"
   779  0000                     STKPTR equ 0FFCh ;# 
   780                           opt subtitle "HI-TECH Software Omniscient Code Generator (Lite mode) build 49521"
   781  0000                     TOS equ 0FFDh ;# 
   782                           opt subtitle "HI-TECH Software Omniscient Code Generator (Lite mode) build 49521"
   783  0000                     TOSL equ 0FFDh ;# 
   784                           opt subtitle "HI-TECH Software Omniscient Code Generator (Lite mode) build 49521"
   785  0000                     TOSH equ 0FFEh ;# 
   786                           opt subtitle "HI-TECH Software Omniscient Code Generator (Lite mode) build 49521"
   787  0000                     TOSU equ 0FFFh ;# 
   788                           opt subtitle "HI-TECH Software Omniscient Code Generator (Lite mode) build 49521"
   789  0000                     SPPDATA equ 0F62h ;# 
   790                           opt subtitle "HI-TECH Software Omniscient Code Generator (Lite mode) build 49521"
   791  0000                     SPPCFG equ 0F63h ;# 
   792                           opt subtitle "HI-TECH Software Omniscient Code Generator (Lite mode) build 49521"
   793  0000                     SPPEPS equ 0F64h ;# 
   794                           opt subtitle "HI-TECH Software Omniscient Code Generator (Lite mode) build 49521"
   795  0000                     SPPCON equ 0F65h ;# 
   796                           opt subtitle "HI-TECH Software Omniscient Code Generator (Lite mode) build 49521"
   797  0000                     UFRM equ 0F66h ;# 
   798                           opt subtitle "HI-TECH Software Omniscient Code Generator (Lite mode) build 49521"
   799  0000                     UFRML equ 0F66h ;# 
   800                           opt subtitle "HI-TECH Software Omniscient Code Generator (Lite mode) build 49521"
   801  0000                     UFRMH equ 0F67h ;# 
   802                           opt subtitle "HI-TECH Software Omniscient Code Generator (Lite mode) build 49521"
   803  0000                     UIR equ 0F68h ;# 
   804                           opt subtitle "HI-TECH Software Omniscient Code Generator (Lite mode) build 49521"
   805  0000                     UIE equ 0F69h ;# 
   806                           opt subtitle "HI-TECH Software Omniscient Code Generator (Lite mode) build 49521"
   807  0000                     UEIR equ 0F6Ah ;# 
   808                           opt subtitle "HI-TECH Software Omniscient Code Generator (Lite mode) build 49521"
   809  0000                     UEIE equ 0F6Bh ;# 
   810                           opt subtitle "HI-TECH Software Omniscient Code Generator (Lite mode) build 49521"
   811  0000                     USTAT equ 0F6Ch ;# 
   812                           opt subtitle "HI-TECH Software Omniscient Code Generator (Lite mode) build 49521"
   813  0000                     UCON equ 0F6Dh ;# 
   814                           opt subtitle "HI-TECH Software Omniscient Code Generator (Lite mode) build 49521"
   815  0000                     UADDR equ 0F6Eh ;# 
   816                           opt subtitle "HI-TECH Software Omniscient Code Generator (Lite mode) build 49521"
   817  0000                     UCFG equ 0F6Fh ;# 
   818                           opt subtitle "HI-TECH Software Omniscient Code Generator (Lite mode) build 49521"
   819  0000                     UEP0 equ 0F70h ;# 
   820                           opt subtitle "HI-TECH Software Omniscient Code Generator (Lite mode) build 49521"
   821  0000                     UEP1 equ 0F71h ;# 
   822                           opt subtitle "HI-TECH Software Omniscient Code Generator (Lite mode) build 49521"
   823  0000                     UEP2 equ 0F72h ;# 
   824                           opt subtitle "HI-TECH Software Omniscient Code Generator (Lite mode) build 49521"
   825  0000                     UEP3 equ 0F73h ;# 
   826                           opt subtitle "HI-TECH Software Omniscient Code Generator (Lite mode) build 49521"
   827  0000                     UEP4 equ 0F74h ;# 
   828                           opt subtitle "HI-TECH Software Omniscient Code Generator (Lite mode) build 49521"
   829  0000                     UEP5 equ 0F75h ;# 
   830                           opt subtitle "HI-TECH Software Omniscient Code Generator (Lite mode) build 49521"
   831  0000                     UEP6 equ 0F76h ;# 
   832                           opt subtitle "HI-TECH Software Omniscient Code Generator (Lite mode) build 49521"
   833  0000                     UEP7 equ 0F77h ;# 
   834                           opt subtitle "HI-TECH Software Omniscient Code Generator (Lite mode) build 49521"
   835  0000                     UEP8 equ 0F78h ;# 
   836                           opt subtitle "HI-TECH Software Omniscient Code Generator (Lite mode) build 49521"
   837  0000                     UEP9 equ 0F79h ;# 
   838                           opt subtitle "HI-TECH Software Omniscient Code Generator (Lite mode) build 49521"
   839  0000                     UEP10 equ 0F7Ah ;# 
   840                           opt subtitle "HI-TECH Software Omniscient Code Generator (Lite mode) build 49521"
   841  0000                     UEP11 equ 0F7Bh ;# 
   842                           opt subtitle "HI-TECH Software Omniscient Code Generator (Lite mode) build 49521"
   843  0000                     UEP12 equ 0F7Ch ;# 
   844                           opt subtitle "HI-TECH Software Omniscient Code Generator (Lite mode) build 49521"
   845  0000                     UEP13 equ 0F7Dh ;# 
   846                           opt subtitle "HI-TECH Software Omniscient Code Generator (Lite mode) build 49521"
   847  0000                     UEP14 equ 0F7Eh ;# 
   848                           opt subtitle "HI-TECH Software Omniscient Code Generator (Lite mode) build 49521"
   849  0000                     UEP15 equ 0F7Fh ;# 
   850                           opt subtitle "HI-TECH Software Omniscient Code Generator (Lite mode) build 49521"
   851  0000                     PORTA equ 0F80h ;# 
   852                           opt subtitle "HI-TECH Software Omniscient Code Generator (Lite mode) build 49521"
   853  0000                     PORTB equ 0F81h ;# 
   854                           opt subtitle "HI-TECH Software Omniscient Code Generator (Lite mode) build 49521"
   855  0000                     PORTC equ 0F82h ;# 
   856                           opt subtitle "HI-TECH Software Omniscient Code Generator (Lite mode) build 49521"
   857  0000                     PORTD equ 0F83h ;# 
   858                           opt subtitle "HI-TECH Software Omniscient Code Generator (Lite mode) build 49521"
   859  0000                     PORTE equ 0F84h ;# 
   860                           opt subtitle "HI-TECH Software Omniscient Code Generator (Lite mode) build 49521"
   861  0000                     LATA equ 0F89h ;# 
   862                           opt subtitle "HI-TECH Software Omniscient Code Generator (Lite mode) build 49521"
   863  0000                     LATB equ 0F8Ah ;# 
   864                           opt subtitle "HI-TECH Software Omniscient Code Generator (Lite mode) build 49521"
   865  0000                     LATC equ 0F8Bh ;# 
   866                           opt subtitle "HI-TECH Software Omniscient Code Generator (Lite mode) build 49521"
   867  0000                     LATD equ 0F8Ch ;# 
   868                           opt subtitle "HI-TECH Software Omniscient Code Generator (Lite mode) build 49521"
   869  0000                     LATE equ 0F8Dh ;# 
   870                           opt subtitle "HI-TECH Software Omniscient Code Generator (Lite mode) build 49521"
   871  0000                     TRISA equ 0F92h ;# 
   872                           opt subtitle "HI-TECH Software Omniscient Code Generator (Lite mode) build 49521"
   873  0000                     DDRA equ 0F92h ;# 
   874                           opt subtitle "HI-TECH Software Omniscient Code Generator (Lite mode) build 49521"
   875  0000                     TRISB equ 0F93h ;# 
   876                           opt subtitle "HI-TECH Software Omniscient Code Generator (Lite mode) build 49521"
   877  0000                     DDRB equ 0F93h ;# 
   878                           opt subtitle "HI-TECH Software Omniscient Code Generator (Lite mode) build 49521"
   879  0000                     TRISC equ 0F94h ;# 
   880                           opt subtitle "HI-TECH Software Omniscient Code Generator (Lite mode) build 49521"
   881  0000                     DDRC equ 0F94h ;# 
   882                           opt subtitle "HI-TECH Software Omniscient Code Generator (Lite mode) build 49521"
   883  0000                     TRISD equ 0F95h ;# 
   884                           opt subtitle "HI-TECH Software Omniscient Code Generator (Lite mode) build 49521"
   885  0000                     DDRD equ 0F95h ;# 
   886                           opt subtitle "HI-TECH Software Omniscient Code Generator (Lite mode) build 49521"
   887  0000                     TRISE equ 0F96h ;# 
   888                           opt subtitle "HI-TECH Software Omniscient Code Generator (Lite mode) build 49521"
   889  0000                     DDRE equ 0F96h ;# 
   890                           opt subtitle "HI-TECH Software Omniscient Code Generator (Lite mode) build 49521"
   891  0000                     OSCTUNE equ 0F9Bh ;# 
   892                           opt subtitle "HI-TECH Software Omniscient Code Generator (Lite mode) build 49521"
   893  0000                     PIE1 equ 0F9Dh ;# 
   894                           opt subtitle "HI-TECH Software Omniscient Code Generator (Lite mode) build 49521"
   895  0000                     PIR1 equ 0F9Eh ;# 
   896                           opt subtitle "HI-TECH Software Omniscient Code Generator (Lite mode) build 49521"
   897  0000                     IPR1 equ 0F9Fh ;# 
   898                           opt subtitle "HI-TECH Software Omniscient Code Generator (Lite mode) build 49521"
   899  0000                     PIE2 equ 0FA0h ;# 
   900                           opt subtitle "HI-TECH Software Omniscient Code Generator (Lite mode) build 49521"
   901  0000                     PIR2 equ 0FA1h ;# 
   902                           opt subtitle "HI-TECH Software Omniscient Code Generator (Lite mode) build 49521"
   903  0000                     IPR2 equ 0FA2h ;# 
   904                           opt subtitle "HI-TECH Software Omniscient Code Generator (Lite mode) build 49521"
   905  0000                     EECON1 equ 0FA6h ;# 
   906                           opt subtitle "HI-TECH Software Omniscient Code Generator (Lite mode) build 49521"
   907  0000                     EECON2 equ 0FA7h ;# 
   908                           opt subtitle "HI-TECH Software Omniscient Code Generator (Lite mode) build 49521"
   909  0000                     EEDATA equ 0FA8h ;# 
   910                           opt subtitle "HI-TECH Software Omniscient Code Generator (Lite mode) build 49521"
   911  0000                     EEADR equ 0FA9h ;# 
   912                           opt subtitle "HI-TECH Software Omniscient Code Generator (Lite mode) build 49521"
   913  0000                     RCSTA equ 0FABh ;# 
   914                           opt subtitle "HI-TECH Software Omniscient Code Generator (Lite mode) build 49521"
   915  0000                     RCSTA1 equ 0FABh ;# 
   916                           opt subtitle "HI-TECH Software Omniscient Code Generator (Lite mode) build 49521"
   917  0000                     TXSTA equ 0FACh ;# 
   918                           opt subtitle "HI-TECH Software Omniscient Code Generator (Lite mode) build 49521"
   919  0000                     TXSTA1 equ 0FACh ;# 
   920                           opt subtitle "HI-TECH Software Omniscient Code Generator (Lite mode) build 49521"
   921  0000                     TXREG equ 0FADh ;# 
   922                           opt subtitle "HI-TECH Software Omniscient Code Generator (Lite mode) build 49521"
   923  0000                     TXREG1 equ 0FADh ;# 
   924                           opt subtitle "HI-TECH Software Omniscient Code Generator (Lite mode) build 49521"
   925  0000                     RCREG equ 0FAEh ;# 
   926                           opt subtitle "HI-TECH Software Omniscient Code Generator (Lite mode) build 49521"
   927  0000                     RCREG1 equ 0FAEh ;# 
   928                           opt subtitle "HI-TECH Software Omniscient Code Generator (Lite mode) build 49521"
   929  0000                     SPBRG equ 0FAFh ;# 
   930                           opt subtitle "HI-TECH Software Omniscient Code Generator (Lite mode) build 49521"
   931  0000                     SPBRG1 equ 0FAFh ;# 
   932                           opt subtitle "HI-TECH Software Omniscient Code Generator (Lite mode) build 49521"
   933  0000                     SPBRGH equ 0FB0h ;# 
   934                           opt subtitle "HI-TECH Software Omniscient Code Generator (Lite mode) build 49521"
   935  0000                     T3CON equ 0FB1h ;# 
   936                           opt subtitle "HI-TECH Software Omniscient Code Generator (Lite mode) build 49521"
   937  0000                     TMR3 equ 0FB2h ;# 
   938                           opt subtitle "HI-TECH Software Omniscient Code Generator (Lite mode) build 49521"
   939  0000                     TMR3L equ 0FB2h ;# 
   940                           opt subtitle "HI-TECH Software Omniscient Code Generator (Lite mode) build 49521"
   941  0000                     TMR3H equ 0FB3h ;# 
   942                           opt subtitle "HI-TECH Software Omniscient Code Generator (Lite mode) build 49521"
   943  0000                     CMCON equ 0FB4h ;# 
   944                           opt subtitle "HI-TECH Software Omniscient Code Generator (Lite mode) build 49521"
   945  0000                     CVRCON equ 0FB5h ;# 
   946                           opt subtitle "HI-TECH Software Omniscient Code Generator (Lite mode) build 49521"
   947  0000                     ECCP1AS equ 0FB6h ;# 
   948                           opt subtitle "HI-TECH Software Omniscient Code Generator (Lite mode) build 49521"
   949  0000                     CCP1AS equ 0FB6h ;# 
   950                           opt subtitle "HI-TECH Software Omniscient Code Generator (Lite mode) build 49521"
   951  0000                     ECCP1DEL equ 0FB7h ;# 
   952                           opt subtitle "HI-TECH Software Omniscient Code Generator (Lite mode) build 49521"
   953  0000                     CCP1DEL equ 0FB7h ;# 
   954                           opt subtitle "HI-TECH Software Omniscient Code Generator (Lite mode) build 49521"
   955  0000                     BAUDCON equ 0FB8h ;# 
   956                           opt subtitle "HI-TECH Software Omniscient Code Generator (Lite mode) build 49521"
   957  0000                     BAUDCTL equ 0FB8h ;# 
   958                           opt subtitle "HI-TECH Software Omniscient Code Generator (Lite mode) build 49521"
   959  0000                     CCP2CON equ 0FBAh ;# 
   960                           opt subtitle "HI-TECH Software Omniscient Code Generator (Lite mode) build 49521"
   961  0000                     CCPR2 equ 0FBBh ;# 
   962                           opt subtitle "HI-TECH Software Omniscient Code Generator (Lite mode) build 49521"
   963  0000                     CCPR2L equ 0FBBh ;# 
   964                           opt subtitle "HI-TECH Software Omniscient Code Generator (Lite mode) build 49521"
   965  0000                     CCPR2H equ 0FBCh ;# 
   966                           opt subtitle "HI-TECH Software Omniscient Code Generator (Lite mode) build 49521"
   967  0000                     CCP1CON equ 0FBDh ;# 
   968                           opt subtitle "HI-TECH Software Omniscient Code Generator (Lite mode) build 49521"
   969  0000                     ECCP1CON equ 0FBDh ;# 
   970                           opt subtitle "HI-TECH Software Omniscient Code Generator (Lite mode) build 49521"
   971  0000                     CCPR1 equ 0FBEh ;# 
   972                           opt subtitle "HI-TECH Software Omniscient Code Generator (Lite mode) build 49521"
   973  0000                     CCPR1L equ 0FBEh ;# 
   974                           opt subtitle "HI-TECH Software Omniscient Code Generator (Lite mode) build 49521"
   975  0000                     CCPR1H equ 0FBFh ;# 
   976                           opt subtitle "HI-TECH Software Omniscient Code Generator (Lite mode) build 49521"
   977  0000                     ADCON2 equ 0FC0h ;# 
   978                           opt subtitle "HI-TECH Software Omniscient Code Generator (Lite mode) build 49521"
   979  0000                     ADCON1 equ 0FC1h ;# 
   980                           opt subtitle "HI-TECH Software Omniscient Code Generator (Lite mode) build 49521"
   981  0000                     ADCON0 equ 0FC2h ;# 
   982                           opt subtitle "HI-TECH Software Omniscient Code Generator (Lite mode) build 49521"
   983  0000                     ADRES equ 0FC3h ;# 
   984                           opt subtitle "HI-TECH Software Omniscient Code Generator (Lite mode) build 49521"
   985  0000                     ADRESL equ 0FC3h ;# 
   986                           opt subtitle "HI-TECH Software Omniscient Code Generator (Lite mode) build 49521"
   987  0000                     ADRESH equ 0FC4h ;# 
   988                           opt subtitle "HI-TECH Software Omniscient Code Generator (Lite mode) build 49521"
   989  0000                     SSPCON2 equ 0FC5h ;# 
   990                           opt subtitle "HI-TECH Software Omniscient Code Generator (Lite mode) build 49521"
   991  0000                     SSPCON1 equ 0FC6h ;# 
   992                           opt subtitle "HI-TECH Software Omniscient Code Generator (Lite mode) build 49521"
   993  0000                     SSPSTAT equ 0FC7h ;# 
   994                           opt subtitle "HI-TECH Software Omniscient Code Generator (Lite mode) build 49521"
   995  0000                     SSPADD equ 0FC8h ;# 
   996                           opt subtitle "HI-TECH Software Omniscient Code Generator (Lite mode) build 49521"
   997  0000                     SSPBUF equ 0FC9h ;# 
   998                           opt subtitle "HI-TECH Software Omniscient Code Generator (Lite mode) build 49521"
   999  0000                     T2CON equ 0FCAh ;# 
  1000                           opt subtitle "HI-TECH Software Omniscient Code Generator (Lite mode) build 49521"
  1001  0000                     PR2 equ 0FCBh ;# 
  1002                           opt subtitle "HI-TECH Software Omniscient Code Generator (Lite mode) build 49521"
  1003  0000                     MEMCON equ 0FCBh ;# 
  1004                           opt subtitle "HI-TECH Software Omniscient Code Generator (Lite mode) build 49521"
  1005  0000                     TMR2 equ 0FCCh ;# 
  1006                           opt subtitle "HI-TECH Software Omniscient Code Generator (Lite mode) build 49521"
  1007  0000                     T1CON equ 0FCDh ;# 
  1008                           opt subtitle "HI-TECH Software Omniscient Code Generator (Lite mode) build 49521"
  1009  0000                     TMR1 equ 0FCEh ;# 
  1010                           opt subtitle "HI-TECH Software Omniscient Code Generator (Lite mode) build 49521"
  1011  0000                     TMR1L equ 0FCEh ;# 
  1012                           opt subtitle "HI-TECH Software Omniscient Code Generator (Lite mode) build 49521"
  1013  0000                     TMR1H equ 0FCFh ;# 
  1014                           opt subtitle "HI-TECH Software Omniscient Code Generator (Lite mode) build 49521"
  1015  0000                     RCON equ 0FD0h ;# 
  1016                           opt subtitle "HI-TECH Software Omniscient Code Generator (Lite mode) build 49521"
  1017  0000                     WDTCON equ 0FD1h ;# 
  1018                           opt subtitle "HI-TECH Software Omniscient Code Generator (Lite mode) build 49521"
  1019  0000                     HLVDCON equ 0FD2h ;# 
  1020                           opt subtitle "HI-TECH Software Omniscient Code Generator (Lite mode) build 49521"
  1021  0000                     LVDCON equ 0FD2h ;# 
  1022                           opt subtitle "HI-TECH Software Omniscient Code Generator (Lite mode) build 49521"
  1023  0000                     OSCCON equ 0FD3h ;# 
  1024                           opt subtitle "HI-TECH Software Omniscient Code Generator (Lite mode) build 49521"
  1025  0000                     T0CON equ 0FD5h ;# 
  1026                           opt subtitle "HI-TECH Software Omniscient Code Generator (Lite mode) build 49521"
  1027  0000                     TMR0 equ 0FD6h ;# 
  1028                           opt subtitle "HI-TECH Software Omniscient Code Generator (Lite mode) build 49521"
  1029  0000                     TMR0L equ 0FD6h ;# 
  1030                           opt subtitle "HI-TECH Software Omniscient Code Generator (Lite mode) build 49521"
  1031  0000                     TMR0H equ 0FD7h ;# 
  1032                           opt subtitle "HI-TECH Software Omniscient Code Generator (Lite mode) build 49521"
  1033  0000                     STATUS equ 0FD8h ;# 
  1034                           opt subtitle "HI-TECH Software Omniscient Code Generator (Lite mode) build 49521"
  1035  0000                     FSR2 equ 0FD9h ;# 
  1036                           opt subtitle "HI-TECH Software Omniscient Code Generator (Lite mode) build 49521"
  1037  0000                     FSR2L equ 0FD9h ;# 
  1038                           opt subtitle "HI-TECH Software Omniscient Code Generator (Lite mode) build 49521"
  1039  0000                     FSR2H equ 0FDAh ;# 
  1040                           opt subtitle "HI-TECH Software Omniscient Code Generator (Lite mode) build 49521"
  1041  0000                     PLUSW2 equ 0FDBh ;# 
  1042                           opt subtitle "HI-TECH Software Omniscient Code Generator (Lite mode) build 49521"
  1043  0000                     PREINC2 equ 0FDCh ;# 
  1044                           opt subtitle "HI-TECH Software Omniscient Code Generator (Lite mode) build 49521"
  1045  0000                     POSTDEC2 equ 0FDDh ;# 
  1046                           opt subtitle "HI-TECH Software Omniscient Code Generator (Lite mode) build 49521"
  1047  0000                     POSTINC2 equ 0FDEh ;# 
  1048                           opt subtitle "HI-TECH Software Omniscient Code Generator (Lite mode) build 49521"
  1049  0000                     INDF2 equ 0FDFh ;# 
  1050                           opt subtitle "HI-TECH Software Omniscient Code Generator (Lite mode) build 49521"
  1051  0000                     BSR equ 0FE0h ;# 
  1052                           opt subtitle "HI-TECH Software Omniscient Code Generator (Lite mode) build 49521"
  1053  0000                     FSR1 equ 0FE1h ;# 
  1054                           opt subtitle "HI-TECH Software Omniscient Code Generator (Lite mode) build 49521"
  1055  0000                     FSR1L equ 0FE1h ;# 
  1056                           opt subtitle "HI-TECH Software Omniscient Code Generator (Lite mode) build 49521"
  1057  0000                     FSR1H equ 0FE2h ;# 
  1058                           opt subtitle "HI-TECH Software Omniscient Code Generator (Lite mode) build 49521"
  1059  0000                     PLUSW1 equ 0FE3h ;# 
  1060                           opt subtitle "HI-TECH Software Omniscient Code Generator (Lite mode) build 49521"
  1061  0000                     PREINC1 equ 0FE4h ;# 
  1062                           opt subtitle "HI-TECH Software Omniscient Code Generator (Lite mode) build 49521"
  1063  0000                     POSTDEC1 equ 0FE5h ;# 
  1064                           opt subtitle "HI-TECH Software Omniscient Code Generator (Lite mode) build 49521"
  1065  0000                     POSTINC1 equ 0FE6h ;# 
  1066                           opt subtitle "HI-TECH Software Omniscient Code Generator (Lite mode) build 49521"
  1067  0000                     INDF1 equ 0FE7h ;# 
  1068                           opt subtitle "HI-TECH Software Omniscient Code Generator (Lite mode) build 49521"
  1069  0000                     WREG equ 0FE8h ;# 
  1070                           opt subtitle "HI-TECH Software Omniscient Code Generator (Lite mode) build 49521"
  1071  0000                     FSR0 equ 0FE9h ;# 
  1072                           opt subtitle "HI-TECH Software Omniscient Code Generator (Lite mode) build 49521"
  1073  0000                     FSR0L equ 0FE9h ;# 
  1074                           opt subtitle "HI-TECH Software Omniscient Code Generator (Lite mode) build 49521"
  1075  0000                     FSR0H equ 0FEAh ;# 
  1076                           opt subtitle "HI-TECH Software Omniscient Code Generator (Lite mode) build 49521"
  1077  0000                     PLUSW0 equ 0FEBh ;# 
  1078                           opt subtitle "HI-TECH Software Omniscient Code Generator (Lite mode) build 49521"
  1079  0000                     PREINC0 equ 0FECh ;# 
  1080                           opt subtitle "HI-TECH Software Omniscient Code Generator (Lite mode) build 49521"
  1081  0000                     POSTDEC0 equ 0FEDh ;# 
  1082                           opt subtitle "HI-TECH Software Omniscient Code Generator (Lite mode) build 49521"
  1083  0000                     POSTINC0 equ 0FEEh ;# 
  1084                           opt subtitle "HI-TECH Software Omniscient Code Generator (Lite mode) build 49521"
  1085  0000                     INDF0 equ 0FEFh ;# 
  1086                           opt subtitle "HI-TECH Software Omniscient Code Generator (Lite mode) build 49521"
  1087  0000                     INTCON3 equ 0FF0h ;# 
  1088                           opt subtitle "HI-TECH Software Omniscient Code Generator (Lite mode) build 49521"
  1089  0000                     INTCON2 equ 0FF1h ;# 
  1090                           opt subtitle "HI-TECH Software Omniscient Code Generator (Lite mode) build 49521"
  1091  0000                     INTCON equ 0FF2h ;# 
  1092                           opt subtitle "HI-TECH Software Omniscient Code Generator (Lite mode) build 49521"
  1093  0000                     PROD equ 0FF3h ;# 
  1094                           opt subtitle "HI-TECH Software Omniscient Code Generator (Lite mode) build 49521"
  1095  0000                     PRODL equ 0FF3h ;# 
  1096                           opt subtitle "HI-TECH Software Omniscient Code Generator (Lite mode) build 49521"
  1097  0000                     PRODH equ 0FF4h ;# 
  1098                           opt subtitle "HI-TECH Software Omniscient Code Generator (Lite mode) build 49521"
  1099  0000                     TABLAT equ 0FF5h ;# 
  1100                           opt subtitle "HI-TECH Software Omniscient Code Generator (Lite mode) build 49521"
  1101  0000                     TBLPTR equ 0FF6h ;# 
  1102                           opt subtitle "HI-TECH Software Omniscient Code Generator (Lite mode) build 49521"
  1103  0000                     TBLPTRL equ 0FF6h ;# 
  1104                           opt subtitle "HI-TECH Software Omniscient Code Generator (Lite mode) build 49521"
  1105  0000                     TBLPTRH equ 0FF7h ;# 
  1106                           opt subtitle "HI-TECH Software Omniscient Code Generator (Lite mode) build 49521"
  1107  0000                     TBLPTRU equ 0FF8h ;# 
  1108                           opt subtitle "HI-TECH Software Omniscient Code Generator (Lite mode) build 49521"
  1109  0000                     PCLAT equ 0FF9h ;# 
  1110                           opt subtitle "HI-TECH Software Omniscient Code Generator (Lite mode) build 49521"
  1111  0000                     PC equ 0FF9h ;# 
  1112                           opt subtitle "HI-TECH Software Omniscient Code Generator (Lite mode) build 49521"
  1113  0000                     PCL equ 0FF9h ;# 
  1114                           opt subtitle "HI-TECH Software Omniscient Code Generator (Lite mode) build 49521"
  1115  0000                     PCLATH equ 0FFAh ;# 
  1116                           opt subtitle "HI-TECH Software Omniscient Code Generator (Lite mode) build 49521"
  1117  0000                     PCLATU equ 0FFBh ;# 
  1118                           opt subtitle "HI-TECH Software Omniscient Code Generator (Lite mode) build 49521"
  1119  0000                     STKPTR equ 0FFCh ;# 
  1120                           opt subtitle "HI-TECH Software Omniscient Code Generator (Lite mode) build 49521"
  1121  0000                     TOS equ 0FFDh ;# 
  1122                           opt subtitle "HI-TECH Software Omniscient Code Generator (Lite mode) build 49521"
  1123  0000                     TOSL equ 0FFDh ;# 
  1124                           opt subtitle "HI-TECH Software Omniscient Code Generator (Lite mode) build 49521"
  1125  0000                     TOSH equ 0FFEh ;# 
  1126                           opt subtitle "HI-TECH Software Omniscient Code Generator (Lite mode) build 49521"
  1127  0000                     TOSU equ 0FFFh ;# 
  1128                           opt subtitle "HI-TECH Software Omniscient Code Generator (Lite mode) build 49521"
  1129  0000                     SPPDATA equ 0F62h ;# 
  1130                           opt subtitle "HI-TECH Software Omniscient Code Generator (Lite mode) build 49521"
  1131  0000                     SPPCFG equ 0F63h ;# 
  1132                           opt subtitle "HI-TECH Software Omniscient Code Generator (Lite mode) build 49521"
  1133  0000                     SPPEPS equ 0F64h ;# 
  1134                           opt subtitle "HI-TECH Software Omniscient Code Generator (Lite mode) build 49521"
  1135  0000                     SPPCON equ 0F65h ;# 
  1136                           opt subtitle "HI-TECH Software Omniscient Code Generator (Lite mode) build 49521"
  1137  0000                     UFRM equ 0F66h ;# 
  1138                           opt subtitle "HI-TECH Software Omniscient Code Generator (Lite mode) build 49521"
  1139  0000                     UFRML equ 0F66h ;# 
  1140                           opt subtitle "HI-TECH Software Omniscient Code Generator (Lite mode) build 49521"
  1141  0000                     UFRMH equ 0F67h ;# 
  1142                           opt subtitle "HI-TECH Software Omniscient Code Generator (Lite mode) build 49521"
  1143  0000                     UIR equ 0F68h ;# 
  1144                           opt subtitle "HI-TECH Software Omniscient Code Generator (Lite mode) build 49521"
  1145  0000                     UIE equ 0F69h ;# 
  1146                           opt subtitle "HI-TECH Software Omniscient Code Generator (Lite mode) build 49521"
  1147  0000                     UEIR equ 0F6Ah ;# 
  1148                           opt subtitle "HI-TECH Software Omniscient Code Generator (Lite mode) build 49521"
  1149  0000                     UEIE equ 0F6Bh ;# 
  1150                           opt subtitle "HI-TECH Software Omniscient Code Generator (Lite mode) build 49521"
  1151  0000                     USTAT equ 0F6Ch ;# 
  1152                           opt subtitle "HI-TECH Software Omniscient Code Generator (Lite mode) build 49521"
  1153  0000                     UCON equ 0F6Dh ;# 
  1154                           opt subtitle "HI-TECH Software Omniscient Code Generator (Lite mode) build 49521"
  1155  0000                     UADDR equ 0F6Eh ;# 
  1156                           opt subtitle "HI-TECH Software Omniscient Code Generator (Lite mode) build 49521"
  1157  0000                     UCFG equ 0F6Fh ;# 
  1158                           opt subtitle "HI-TECH Software Omniscient Code Generator (Lite mode) build 49521"
  1159  0000                     UEP0 equ 0F70h ;# 
  1160                           opt subtitle "HI-TECH Software Omniscient Code Generator (Lite mode) build 49521"
  1161  0000                     UEP1 equ 0F71h ;# 
  1162                           opt subtitle "HI-TECH Software Omniscient Code Generator (Lite mode) build 49521"
  1163  0000                     UEP2 equ 0F72h ;# 
  1164                           opt subtitle "HI-TECH Software Omniscient Code Generator (Lite mode) build 49521"
  1165  0000                     UEP3 equ 0F73h ;# 
  1166                           opt subtitle "HI-TECH Software Omniscient Code Generator (Lite mode) build 49521"
  1167  0000                     UEP4 equ 0F74h ;# 
  1168                           opt subtitle "HI-TECH Software Omniscient Code Generator (Lite mode) build 49521"
  1169  0000                     UEP5 equ 0F75h ;# 
  1170                           opt subtitle "HI-TECH Software Omniscient Code Generator (Lite mode) build 49521"
  1171  0000                     UEP6 equ 0F76h ;# 
  1172                           opt subtitle "HI-TECH Software Omniscient Code Generator (Lite mode) build 49521"
  1173  0000                     UEP7 equ 0F77h ;# 
  1174                           opt subtitle "HI-TECH Software Omniscient Code Generator (Lite mode) build 49521"
  1175  0000                     UEP8 equ 0F78h ;# 
  1176                           opt subtitle "HI-TECH Software Omniscient Code Generator (Lite mode) build 49521"
  1177  0000                     UEP9 equ 0F79h ;# 
  1178                           opt subtitle "HI-TECH Software Omniscient Code Generator (Lite mode) build 49521"
  1179  0000                     UEP10 equ 0F7Ah ;# 
  1180                           opt subtitle "HI-TECH Software Omniscient Code Generator (Lite mode) build 49521"
  1181  0000                     UEP11 equ 0F7Bh ;# 
  1182                           opt subtitle "HI-TECH Software Omniscient Code Generator (Lite mode) build 49521"
  1183  0000                     UEP12 equ 0F7Ch ;# 
  1184                           opt subtitle "HI-TECH Software Omniscient Code Generator (Lite mode) build 49521"
  1185  0000                     UEP13 equ 0F7Dh ;# 
  1186                           opt subtitle "HI-TECH Software Omniscient Code Generator (Lite mode) build 49521"
  1187  0000                     UEP14 equ 0F7Eh ;# 
  1188                           opt subtitle "HI-TECH Software Omniscient Code Generator (Lite mode) build 49521"
  1189  0000                     UEP15 equ 0F7Fh ;# 
  1190                           opt subtitle "HI-TECH Software Omniscient Code Generator (Lite mode) build 49521"
  1191  0000                     PORTA equ 0F80h ;# 
  1192                           opt subtitle "HI-TECH Software Omniscient Code Generator (Lite mode) build 49521"
  1193  0000                     PORTB equ 0F81h ;# 
  1194                           opt subtitle "HI-TECH Software Omniscient Code Generator (Lite mode) build 49521"
  1195  0000                     PORTC equ 0F82h ;# 
  1196                           opt subtitle "HI-TECH Software Omniscient Code Generator (Lite mode) build 49521"
  1197  0000                     PORTD equ 0F83h ;# 
  1198                           opt subtitle "HI-TECH Software Omniscient Code Generator (Lite mode) build 49521"
  1199  0000                     PORTE equ 0F84h ;# 
  1200                           opt subtitle "HI-TECH Software Omniscient Code Generator (Lite mode) build 49521"
  1201  0000                     LATA equ 0F89h ;# 
  1202                           opt subtitle "HI-TECH Software Omniscient Code Generator (Lite mode) build 49521"
  1203  0000                     LATB equ 0F8Ah ;# 
  1204                           opt subtitle "HI-TECH Software Omniscient Code Generator (Lite mode) build 49521"
  1205  0000                     LATC equ 0F8Bh ;# 
  1206                           opt subtitle "HI-TECH Software Omniscient Code Generator (Lite mode) build 49521"
  1207  0000                     LATD equ 0F8Ch ;# 
  1208                           opt subtitle "HI-TECH Software Omniscient Code Generator (Lite mode) build 49521"
  1209  0000                     LATE equ 0F8Dh ;# 
  1210                           opt subtitle "HI-TECH Software Omniscient Code Generator (Lite mode) build 49521"
  1211  0000                     TRISA equ 0F92h ;# 
  1212                           opt subtitle "HI-TECH Software Omniscient Code Generator (Lite mode) build 49521"
  1213  0000                     DDRA equ 0F92h ;# 
  1214                           opt subtitle "HI-TECH Software Omniscient Code Generator (Lite mode) build 49521"
  1215  0000                     TRISB equ 0F93h ;# 
  1216                           opt subtitle "HI-TECH Software Omniscient Code Generator (Lite mode) build 49521"
  1217  0000                     DDRB equ 0F93h ;# 
  1218                           opt subtitle "HI-TECH Software Omniscient Code Generator (Lite mode) build 49521"
  1219  0000                     TRISC equ 0F94h ;# 
  1220                           opt subtitle "HI-TECH Software Omniscient Code Generator (Lite mode) build 49521"
  1221  0000                     DDRC equ 0F94h ;# 
  1222                           opt subtitle "HI-TECH Software Omniscient Code Generator (Lite mode) build 49521"
  1223  0000                     TRISD equ 0F95h ;# 
  1224                           opt subtitle "HI-TECH Software Omniscient Code Generator (Lite mode) build 49521"
  1225  0000                     DDRD equ 0F95h ;# 
  1226                           opt subtitle "HI-TECH Software Omniscient Code Generator (Lite mode) build 49521"
  1227  0000                     TRISE equ 0F96h ;# 
  1228                           opt subtitle "HI-TECH Software Omniscient Code Generator (Lite mode) build 49521"
  1229  0000                     DDRE equ 0F96h ;# 
  1230                           opt subtitle "HI-TECH Software Omniscient Code Generator (Lite mode) build 49521"
  1231  0000                     OSCTUNE equ 0F9Bh ;# 
  1232                           opt subtitle "HI-TECH Software Omniscient Code Generator (Lite mode) build 49521"
  1233  0000                     PIE1 equ 0F9Dh ;# 
  1234                           opt subtitle "HI-TECH Software Omniscient Code Generator (Lite mode) build 49521"
  1235  0000                     PIR1 equ 0F9Eh ;# 
  1236                           opt subtitle "HI-TECH Software Omniscient Code Generator (Lite mode) build 49521"
  1237  0000                     IPR1 equ 0F9Fh ;# 
  1238                           opt subtitle "HI-TECH Software Omniscient Code Generator (Lite mode) build 49521"
  1239  0000                     PIE2 equ 0FA0h ;# 
  1240                           opt subtitle "HI-TECH Software Omniscient Code Generator (Lite mode) build 49521"
  1241  0000                     PIR2 equ 0FA1h ;# 
  1242                           opt subtitle "HI-TECH Software Omniscient Code Generator (Lite mode) build 49521"
  1243  0000                     IPR2 equ 0FA2h ;# 
  1244                           opt subtitle "HI-TECH Software Omniscient Code Generator (Lite mode) build 49521"
  1245  0000                     EECON1 equ 0FA6h ;# 
  1246                           opt subtitle "HI-TECH Software Omniscient Code Generator (Lite mode) build 49521"
  1247  0000                     EECON2 equ 0FA7h ;# 
  1248                           opt subtitle "HI-TECH Software Omniscient Code Generator (Lite mode) build 49521"
  1249  0000                     EEDATA equ 0FA8h ;# 
  1250                           opt subtitle "HI-TECH Software Omniscient Code Generator (Lite mode) build 49521"
  1251  0000                     EEADR equ 0FA9h ;# 
  1252                           opt subtitle "HI-TECH Software Omniscient Code Generator (Lite mode) build 49521"
  1253  0000                     RCSTA equ 0FABh ;# 
  1254                           opt subtitle "HI-TECH Software Omniscient Code Generator (Lite mode) build 49521"
  1255  0000                     RCSTA1 equ 0FABh ;# 
  1256                           opt subtitle "HI-TECH Software Omniscient Code Generator (Lite mode) build 49521"
  1257  0000                     TXSTA equ 0FACh ;# 
  1258                           opt subtitle "HI-TECH Software Omniscient Code Generator (Lite mode) build 49521"
  1259  0000                     TXSTA1 equ 0FACh ;# 
  1260                           opt subtitle "HI-TECH Software Omniscient Code Generator (Lite mode) build 49521"
  1261  0000                     TXREG equ 0FADh ;# 
  1262                           opt subtitle "HI-TECH Software Omniscient Code Generator (Lite mode) build 49521"
  1263  0000                     TXREG1 equ 0FADh ;# 
  1264                           opt subtitle "HI-TECH Software Omniscient Code Generator (Lite mode) build 49521"
  1265  0000                     RCREG equ 0FAEh ;# 
  1266                           opt subtitle "HI-TECH Software Omniscient Code Generator (Lite mode) build 49521"
  1267  0000                     RCREG1 equ 0FAEh ;# 
  1268                           opt subtitle "HI-TECH Software Omniscient Code Generator (Lite mode) build 49521"
  1269  0000                     SPBRG equ 0FAFh ;# 
  1270                           opt subtitle "HI-TECH Software Omniscient Code Generator (Lite mode) build 49521"
  1271  0000                     SPBRG1 equ 0FAFh ;# 
  1272                           opt subtitle "HI-TECH Software Omniscient Code Generator (Lite mode) build 49521"
  1273  0000                     SPBRGH equ 0FB0h ;# 
  1274                           opt subtitle "HI-TECH Software Omniscient Code Generator (Lite mode) build 49521"
  1275  0000                     T3CON equ 0FB1h ;# 
  1276                           opt subtitle "HI-TECH Software Omniscient Code Generator (Lite mode) build 49521"
  1277  0000                     TMR3 equ 0FB2h ;# 
  1278                           opt subtitle "HI-TECH Software Omniscient Code Generator (Lite mode) build 49521"
  1279  0000                     TMR3L equ 0FB2h ;# 
  1280                           opt subtitle "HI-TECH Software Omniscient Code Generator (Lite mode) build 49521"
  1281  0000                     TMR3H equ 0FB3h ;# 
  1282                           opt subtitle "HI-TECH Software Omniscient Code Generator (Lite mode) build 49521"
  1283  0000                     CMCON equ 0FB4h ;# 
  1284                           opt subtitle "HI-TECH Software Omniscient Code Generator (Lite mode) build 49521"
  1285  0000                     CVRCON equ 0FB5h ;# 
  1286                           opt subtitle "HI-TECH Software Omniscient Code Generator (Lite mode) build 49521"
  1287  0000                     ECCP1AS equ 0FB6h ;# 
  1288                           opt subtitle "HI-TECH Software Omniscient Code Generator (Lite mode) build 49521"
  1289  0000                     CCP1AS equ 0FB6h ;# 
  1290                           opt subtitle "HI-TECH Software Omniscient Code Generator (Lite mode) build 49521"
  1291  0000                     ECCP1DEL equ 0FB7h ;# 
  1292                           opt subtitle "HI-TECH Software Omniscient Code Generator (Lite mode) build 49521"
  1293  0000                     CCP1DEL equ 0FB7h ;# 
  1294                           opt subtitle "HI-TECH Software Omniscient Code Generator (Lite mode) build 49521"
  1295  0000                     BAUDCON equ 0FB8h ;# 
  1296                           opt subtitle "HI-TECH Software Omniscient Code Generator (Lite mode) build 49521"
  1297  0000                     BAUDCTL equ 0FB8h ;# 
  1298                           opt subtitle "HI-TECH Software Omniscient Code Generator (Lite mode) build 49521"
  1299  0000                     CCP2CON equ 0FBAh ;# 
  1300                           opt subtitle "HI-TECH Software Omniscient Code Generator (Lite mode) build 49521"
  1301  0000                     CCPR2 equ 0FBBh ;# 
  1302                           opt subtitle "HI-TECH Software Omniscient Code Generator (Lite mode) build 49521"
  1303  0000                     CCPR2L equ 0FBBh ;# 
  1304                           opt subtitle "HI-TECH Software Omniscient Code Generator (Lite mode) build 49521"
  1305  0000                     CCPR2H equ 0FBCh ;# 
  1306                           opt subtitle "HI-TECH Software Omniscient Code Generator (Lite mode) build 49521"
  1307  0000                     CCP1CON equ 0FBDh ;# 
  1308                           opt subtitle "HI-TECH Software Omniscient Code Generator (Lite mode) build 49521"
  1309  0000                     ECCP1CON equ 0FBDh ;# 
  1310                           opt subtitle "HI-TECH Software Omniscient Code Generator (Lite mode) build 49521"
  1311  0000                     CCPR1 equ 0FBEh ;# 
  1312                           opt subtitle "HI-TECH Software Omniscient Code Generator (Lite mode) build 49521"
  1313  0000                     CCPR1L equ 0FBEh ;# 
  1314                           opt subtitle "HI-TECH Software Omniscient Code Generator (Lite mode) build 49521"
  1315  0000                     CCPR1H equ 0FBFh ;# 
  1316                           opt subtitle "HI-TECH Software Omniscient Code Generator (Lite mode) build 49521"
  1317  0000                     ADCON2 equ 0FC0h ;# 
  1318                           opt subtitle "HI-TECH Software Omniscient Code Generator (Lite mode) build 49521"
  1319  0000                     ADCON1 equ 0FC1h ;# 
  1320                           opt subtitle "HI-TECH Software Omniscient Code Generator (Lite mode) build 49521"
  1321  0000                     ADCON0 equ 0FC2h ;# 
  1322                           opt subtitle "HI-TECH Software Omniscient Code Generator (Lite mode) build 49521"
  1323  0000                     ADRES equ 0FC3h ;# 
  1324                           opt subtitle "HI-TECH Software Omniscient Code Generator (Lite mode) build 49521"
  1325  0000                     ADRESL equ 0FC3h ;# 
  1326                           opt subtitle "HI-TECH Software Omniscient Code Generator (Lite mode) build 49521"
  1327  0000                     ADRESH equ 0FC4h ;# 
  1328                           opt subtitle "HI-TECH Software Omniscient Code Generator (Lite mode) build 49521"
  1329  0000                     SSPCON2 equ 0FC5h ;# 
  1330                           opt subtitle "HI-TECH Software Omniscient Code Generator (Lite mode) build 49521"
  1331  0000                     SSPCON1 equ 0FC6h ;# 
  1332                           opt subtitle "HI-TECH Software Omniscient Code Generator (Lite mode) build 49521"
  1333  0000                     SSPSTAT equ 0FC7h ;# 
  1334                           opt subtitle "HI-TECH Software Omniscient Code Generator (Lite mode) build 49521"
  1335  0000                     SSPADD equ 0FC8h ;# 
  1336                           opt subtitle "HI-TECH Software Omniscient Code Generator (Lite mode) build 49521"
  1337  0000                     SSPBUF equ 0FC9h ;# 
  1338                           opt subtitle "HI-TECH Software Omniscient Code Generator (Lite mode) build 49521"
  1339  0000                     T2CON equ 0FCAh ;# 
  1340                           opt subtitle "HI-TECH Software Omniscient Code Generator (Lite mode) build 49521"
  1341  0000                     PR2 equ 0FCBh ;# 
  1342                           opt subtitle "HI-TECH Software Omniscient Code Generator (Lite mode) build 49521"
  1343  0000                     MEMCON equ 0FCBh ;# 
  1344                           opt subtitle "HI-TECH Software Omniscient Code Generator (Lite mode) build 49521"
  1345  0000                     TMR2 equ 0FCCh ;# 
  1346                           opt subtitle "HI-TECH Software Omniscient Code Generator (Lite mode) build 49521"
  1347  0000                     T1CON equ 0FCDh ;# 
  1348                           opt subtitle "HI-TECH Software Omniscient Code Generator (Lite mode) build 49521"
  1349  0000                     TMR1 equ 0FCEh ;# 
  1350                           opt subtitle "HI-TECH Software Omniscient Code Generator (Lite mode) build 49521"
  1351  0000                     TMR1L equ 0FCEh ;# 
  1352                           opt subtitle "HI-TECH Software Omniscient Code Generator (Lite mode) build 49521"
  1353  0000                     TMR1H equ 0FCFh ;# 
  1354                           opt subtitle "HI-TECH Software Omniscient Code Generator (Lite mode) build 49521"
  1355  0000                     RCON equ 0FD0h ;# 
  1356                           opt subtitle "HI-TECH Software Omniscient Code Generator (Lite mode) build 49521"
  1357  0000                     WDTCON equ 0FD1h ;# 
  1358                           opt subtitle "HI-TECH Software Omniscient Code Generator (Lite mode) build 49521"
  1359  0000                     HLVDCON equ 0FD2h ;# 
  1360                           opt subtitle "HI-TECH Software Omniscient Code Generator (Lite mode) build 49521"
  1361  0000                     LVDCON equ 0FD2h ;# 
  1362                           opt subtitle "HI-TECH Software Omniscient Code Generator (Lite mode) build 49521"
  1363  0000                     OSCCON equ 0FD3h ;# 
  1364                           opt subtitle "HI-TECH Software Omniscient Code Generator (Lite mode) build 49521"
  1365  0000                     T0CON equ 0FD5h ;# 
  1366                           opt subtitle "HI-TECH Software Omniscient Code Generator (Lite mode) build 49521"
  1367  0000                     TMR0 equ 0FD6h ;# 
  1368                           opt subtitle "HI-TECH Software Omniscient Code Generator (Lite mode) build 49521"
  1369  0000                     TMR0L equ 0FD6h ;# 
  1370                           opt subtitle "HI-TECH Software Omniscient Code Generator (Lite mode) build 49521"
  1371  0000                     TMR0H equ 0FD7h ;# 
  1372                           opt subtitle "HI-TECH Software Omniscient Code Generator (Lite mode) build 49521"
  1373  0000                     STATUS equ 0FD8h ;# 
  1374                           opt subtitle "HI-TECH Software Omniscient Code Generator (Lite mode) build 49521"
  1375  0000                     FSR2 equ 0FD9h ;# 
  1376                           opt subtitle "HI-TECH Software Omniscient Code Generator (Lite mode) build 49521"
  1377  0000                     FSR2L equ 0FD9h ;# 
  1378                           opt subtitle "HI-TECH Software Omniscient Code Generator (Lite mode) build 49521"
  1379  0000                     FSR2H equ 0FDAh ;# 
  1380                           opt subtitle "HI-TECH Software Omniscient Code Generator (Lite mode) build 49521"
  1381  0000                     PLUSW2 equ 0FDBh ;# 
  1382                           opt subtitle "HI-TECH Software Omniscient Code Generator (Lite mode) build 49521"
  1383  0000                     PREINC2 equ 0FDCh ;# 
  1384                           opt subtitle "HI-TECH Software Omniscient Code Generator (Lite mode) build 49521"
  1385  0000                     POSTDEC2 equ 0FDDh ;# 
  1386                           opt subtitle "HI-TECH Software Omniscient Code Generator (Lite mode) build 49521"
  1387  0000                     POSTINC2 equ 0FDEh ;# 
  1388                           opt subtitle "HI-TECH Software Omniscient Code Generator (Lite mode) build 49521"
  1389  0000                     INDF2 equ 0FDFh ;# 
  1390                           opt subtitle "HI-TECH Software Omniscient Code Generator (Lite mode) build 49521"
  1391  0000                     BSR equ 0FE0h ;# 
  1392                           opt subtitle "HI-TECH Software Omniscient Code Generator (Lite mode) build 49521"
  1393  0000                     FSR1 equ 0FE1h ;# 
  1394                           opt subtitle "HI-TECH Software Omniscient Code Generator (Lite mode) build 49521"
  1395  0000                     FSR1L equ 0FE1h ;# 
  1396                           opt subtitle "HI-TECH Software Omniscient Code Generator (Lite mode) build 49521"
  1397  0000                     FSR1H equ 0FE2h ;# 
  1398                           opt subtitle "HI-TECH Software Omniscient Code Generator (Lite mode) build 49521"
  1399  0000                     PLUSW1 equ 0FE3h ;# 
  1400                           opt subtitle "HI-TECH Software Omniscient Code Generator (Lite mode) build 49521"
  1401  0000                     PREINC1 equ 0FE4h ;# 
  1402                           opt subtitle "HI-TECH Software Omniscient Code Generator (Lite mode) build 49521"
  1403  0000                     POSTDEC1 equ 0FE5h ;# 
  1404                           opt subtitle "HI-TECH Software Omniscient Code Generator (Lite mode) build 49521"
  1405  0000                     POSTINC1 equ 0FE6h ;# 
  1406                           opt subtitle "HI-TECH Software Omniscient Code Generator (Lite mode) build 49521"
  1407  0000                     INDF1 equ 0FE7h ;# 
  1408                           opt subtitle "HI-TECH Software Omniscient Code Generator (Lite mode) build 49521"
  1409  0000                     WREG equ 0FE8h ;# 
  1410                           opt subtitle "HI-TECH Software Omniscient Code Generator (Lite mode) build 49521"
  1411  0000                     FSR0 equ 0FE9h ;# 
  1412                           opt subtitle "HI-TECH Software Omniscient Code Generator (Lite mode) build 49521"
  1413  0000                     FSR0L equ 0FE9h ;# 
  1414                           opt subtitle "HI-TECH Software Omniscient Code Generator (Lite mode) build 49521"
  1415  0000                     FSR0H equ 0FEAh ;# 
  1416                           opt subtitle "HI-TECH Software Omniscient Code Generator (Lite mode) build 49521"
  1417  0000                     PLUSW0 equ 0FEBh ;# 
  1418                           opt subtitle "HI-TECH Software Omniscient Code Generator (Lite mode) build 49521"
  1419  0000                     PREINC0 equ 0FECh ;# 
  1420                           opt subtitle "HI-TECH Software Omniscient Code Generator (Lite mode) build 49521"
  1421  0000                     POSTDEC0 equ 0FEDh ;# 
  1422                           opt subtitle "HI-TECH Software Omniscient Code Generator (Lite mode) build 49521"
  1423  0000                     POSTINC0 equ 0FEEh ;# 
  1424                           opt subtitle "HI-TECH Software Omniscient Code Generator (Lite mode) build 49521"
  1425  0000                     INDF0 equ 0FEFh ;# 
  1426                           opt subtitle "HI-TECH Software Omniscient Code Generator (Lite mode) build 49521"
  1427  0000                     INTCON3 equ 0FF0h ;# 
  1428                           opt subtitle "HI-TECH Software Omniscient Code Generator (Lite mode) build 49521"
  1429  0000                     INTCON2 equ 0FF1h ;# 
  1430                           opt subtitle "HI-TECH Software Omniscient Code Generator (Lite mode) build 49521"
  1431  0000                     INTCON equ 0FF2h ;# 
  1432                           opt subtitle "HI-TECH Software Omniscient Code Generator (Lite mode) build 49521"
  1433  0000                     PROD equ 0FF3h ;# 
  1434                           opt subtitle "HI-TECH Software Omniscient Code Generator (Lite mode) build 49521"
  1435  0000                     PRODL equ 0FF3h ;# 
  1436                           opt subtitle "HI-TECH Software Omniscient Code Generator (Lite mode) build 49521"
  1437  0000                     PRODH equ 0FF4h ;# 
  1438                           opt subtitle "HI-TECH Software Omniscient Code Generator (Lite mode) build 49521"
  1439  0000                     TABLAT equ 0FF5h ;# 
  1440                           opt subtitle "HI-TECH Software Omniscient Code Generator (Lite mode) build 49521"
  1441  0000                     TBLPTR equ 0FF6h ;# 
  1442                           opt subtitle "HI-TECH Software Omniscient Code Generator (Lite mode) build 49521"
  1443  0000                     TBLPTRL equ 0FF6h ;# 
  1444                           opt subtitle "HI-TECH Software Omniscient Code Generator (Lite mode) build 49521"
  1445  0000                     TBLPTRH equ 0FF7h ;# 
  1446                           opt subtitle "HI-TECH Software Omniscient Code Generator (Lite mode) build 49521"
  1447  0000                     TBLPTRU equ 0FF8h ;# 
  1448                           opt subtitle "HI-TECH Software Omniscient Code Generator (Lite mode) build 49521"
  1449  0000                     PCLAT equ 0FF9h ;# 
  1450                           opt subtitle "HI-TECH Software Omniscient Code Generator (Lite mode) build 49521"
  1451  0000                     PC equ 0FF9h ;# 
  1452                           opt subtitle "HI-TECH Software Omniscient Code Generator (Lite mode) build 49521"
  1453  0000                     PCL equ 0FF9h ;# 
  1454                           opt subtitle "HI-TECH Software Omniscient Code Generator (Lite mode) build 49521"
  1455  0000                     PCLATH equ 0FFAh ;# 
  1456                           opt subtitle "HI-TECH Software Omniscient Code Generator (Lite mode) build 49521"
  1457  0000                     PCLATU equ 0FFBh ;# 
  1458                           opt subtitle "HI-TECH Software Omniscient Code Generator (Lite mode) build 49521"
  1459  0000                     STKPTR equ 0FFCh ;# 
  1460                           opt subtitle "HI-TECH Software Omniscient Code Generator (Lite mode) build 49521"
  1461  0000                     TOS equ 0FFDh ;# 
  1462                           opt subtitle "HI-TECH Software Omniscient Code Generator (Lite mode) build 49521"
  1463  0000                     TOSL equ 0FFDh ;# 
  1464                           opt subtitle "HI-TECH Software Omniscient Code Generator (Lite mode) build 49521"
  1465  0000                     TOSH equ 0FFEh ;# 
  1466                           opt subtitle "HI-TECH Software Omniscient Code Generator (Lite mode) build 49521"
  1467  0000                     TOSU equ 0FFFh ;# 
  1468                           opt subtitle "HI-TECH Software Omniscient Code Generator (Lite mode) build 49521"
  1469                           
  1470                           opt pagewidth 120
  1471                           
  1472                           	opt lm
  1473                           
  1474                           	processor	18F4550
  1475                           porta	equ	0F80h
  1476                           portb	equ	0F81h
  1477                           portc	equ	0F82h
  1478                           portd	equ	0F83h
  1479                           porte	equ	0F84h
  1480                           lata	equ	0F89h
  1481                           latb	equ	0F8Ah
  1482                           latc	equ	0F8Bh
  1483                           latd	equ	0F8Ch
  1484                           late	equ	0F8Dh
  1485                           trisa	equ	0F92h
  1486                           trisb	equ	0F93h
  1487                           trisc	equ	0F94h
  1488                           trisd	equ	0F95h
  1489                           trise	equ	0F96h
  1490                           pie1	equ	0F9Dh
  1491                           pir1	equ	0F9Eh
  1492                           ipr1	equ	0F9Fh
  1493                           pie2	equ	0FA0h
  1494  0000                     _ADRES	set	0xFC3
  1495                           opt subtitle "HI-TECH Software Omniscient Code Generator (Lite mode) build 49521"
  1496  0000                     _LATAbits	set	0xF89
  1497                           opt subtitle "HI-TECH Software Omniscient Code Generator (Lite mode) build 49521"
  1498  0000                     _LATD	set	0xF8C
  1499                           opt subtitle "HI-TECH Software Omniscient Code Generator (Lite mode) build 49521"
  1500  0000                     _PORTA	set	0xF80
  1501                           opt subtitle "HI-TECH Software Omniscient Code Generator (Lite mode) build 49521"
  1502  0000                     _PORTB	set	0xF81
  1503                           opt subtitle "HI-TECH Software Omniscient Code Generator (Lite mode) build 49521"
  1504  0000                     _PORTC	set	0xF82
  1505                           opt subtitle "HI-TECH Software Omniscient Code Generator (Lite mode) build 49521"
  1506  0000                     _PORTD	set	0xF83
  1507                           opt subtitle "HI-TECH Software Omniscient Code Generator (Lite mode) build 49521"
  1508  0000                     _PORTE	set	0xF84
  1509                           opt subtitle "HI-TECH Software Omniscient Code Generator (Lite mode) build 49521"
  1510  0000                     _TRISA	set	0xF92
  1511                           opt subtitle "HI-TECH Software Omniscient Code Generator (Lite mode) build 49521"
  1512  0000                     _TRISB	set	0xF93
  1513                           opt subtitle "HI-TECH Software Omniscient Code Generator (Lite mode) build 49521"
  1514  0000                     _TRISC	set	0xF94
  1515                           opt subtitle "HI-TECH Software Omniscient Code Generator (Lite mode) build 49521"
  1516  0000                     _TRISD	set	0xF95
  1517                           opt subtitle "HI-TECH Software Omniscient Code Generator (Lite mode) build 49521"
  1518  0000                     _TRISE	set	0xF96
  1519                           opt subtitle "HI-TECH Software Omniscient Code Generator (Lite mode) build 49521"
  1520  0000                     _ACQT0	set	0x7E03
  1521                           opt subtitle "HI-TECH Software Omniscient Code Generator (Lite mode) build 49521"
  1522  0000                     _ACQT1	set	0x7E04
  1523                           opt subtitle "HI-TECH Software Omniscient Code Generator (Lite mode) build 49521"
  1524  0000                     _ACQT2	set	0x7E05
  1525                           opt subtitle "HI-TECH Software Omniscient Code Generator (Lite mode) build 49521"
  1526  0000                     _ADCS0	set	0x7E00
  1527                           opt subtitle "HI-TECH Software Omniscient Code Generator (Lite mode) build 49521"
  1528  0000                     _ADCS1	set	0x7E01
  1529                           opt subtitle "HI-TECH Software Omniscient Code Generator (Lite mode) build 49521"
  1530  0000                     _ADCS2	set	0x7E02
  1531                           opt subtitle "HI-TECH Software Omniscient Code Generator (Lite mode) build 49521"
  1532  0000                     _ADFM	set	0x7E07
  1533                           opt subtitle "HI-TECH Software Omniscient Code Generator (Lite mode) build 49521"
  1534  0000                     _ADON	set	0x7E10
  1535                           opt subtitle "HI-TECH Software Omniscient Code Generator (Lite mode) build 49521"
  1536  0000                     _CHS0	set	0x7E12
  1537                           opt subtitle "HI-TECH Software Omniscient Code Generator (Lite mode) build 49521"
  1538  0000                     _CHS1	set	0x7E13
  1539                           opt subtitle "HI-TECH Software Omniscient Code Generator (Lite mode) build 49521"
  1540  0000                     _CHS2	set	0x7E14
  1541                           opt subtitle "HI-TECH Software Omniscient Code Generator (Lite mode) build 49521"
  1542  0000                     _CHS3	set	0x7E15
  1543                           opt subtitle "HI-TECH Software Omniscient Code Generator (Lite mode) build 49521"
  1544  0000                     _DONE	set	0x7E11
  1545                           opt subtitle "HI-TECH Software Omniscient Code Generator (Lite mode) build 49521"
  1546  0000                     _GO	set	0x7E11
  1547                           opt subtitle "HI-TECH Software Omniscient Code Generator (Lite mode) build 49521"
  1548  0000                     _LC2	set	0x7C5A
  1549                           opt subtitle "HI-TECH Software Omniscient Code Generator (Lite mode) build 49521"
  1550  0000                     _LE0	set	0x7C68
  1551                           opt subtitle "HI-TECH Software Omniscient Code Generator (Lite mode) build 49521"
  1552  0000                     _LE1	set	0x7C69
  1553                           opt subtitle "HI-TECH Software Omniscient Code Generator (Lite mode) build 49521"
  1554  0000                     _PCFG0	set	0x7E08
  1555                           opt subtitle "HI-TECH Software Omniscient Code Generator (Lite mode) build 49521"
  1556  0000                     _PCFG1	set	0x7E09
  1557                           opt subtitle "HI-TECH Software Omniscient Code Generator (Lite mode) build 49521"
  1558  0000                     _PCFG2	set	0x7E0A
  1559                           opt subtitle "HI-TECH Software Omniscient Code Generator (Lite mode) build 49521"
  1560  0000                     _PCFG3	set	0x7E0B
  1561                           opt subtitle "HI-TECH Software Omniscient Code Generator (Lite mode) build 49521"
  1562  0000                     _RB0	set	0x7C08
  1563                           opt subtitle "HI-TECH Software Omniscient Code Generator (Lite mode) build 49521"
  1564  0000                     _VCFG0	set	0x7E0C
  1565                           opt subtitle "HI-TECH Software Omniscient Code Generator (Lite mode) build 49521"
  1566  0000                     _VCFG1	set	0x7E0D
  1567                           opt subtitle "HI-TECH Software Omniscient Code Generator (Lite mode) build 49521"
  1568                           
  1569  000800                     __psmallconst:
  1570                           opt subtitle "HI-TECH Software Omniscient Code Generator (Lite mode) build 49521"
  1571  000800                     __stringdata:
  1572                           opt subtitle "HI-TECH Software Omniscient Code Generator (Lite mode) build 49521"
  1573  000800                     STR_1:
  1574  000800  43                 	db	67	;'C'
  1575  000801  79                 	db	121	;'y'
  1576  000802  74                 	db	116	;'t'
  1577  000803  72                 	db	114	;'r'
  1578  000804  6F                 	db	111	;'o'
  1579  000805  6E                 	db	110	;'n'
  1580  000806  20                 	db	32
  1581  000807  50                 	db	80	;'P'
  1582  000808  54                 	db	84	;'T'
  1583  000809  4B                 	db	75	;'K'
  1584  00080A  34                 	db	52	;'4'
  1585  00080B  30                 	db	48	;'0'
  1586  00080C  41                 	db	65	;'A'
  1587  00080D  00                 	db	0
  1588                           opt subtitle "HI-TECH Software Omniscient Code Generator (Lite mode) build 49521"
  1589  00080E                     STR_2:
  1590  00080E  48                 	db	72	;'H'
  1591  00080F  65                 	db	101	;'e'
  1592  000810  6C                 	db	108	;'l'
  1593  000811  6C                 	db	108	;'l'
  1594  000812  6F                 	db	111	;'o'
  1595  000813  20                 	db	32
  1596  000814  57                 	db	87	;'W'
  1597  000815  6F                 	db	111	;'o'
  1598  000816  72                 	db	114	;'r'
  1599  000817  6C                 	db	108	;'l'
  1600  000818  64                 	db	100	;'d'
  1601  000819  00                 	db	0
  1602                           opt subtitle "HI-TECH Software Omniscient Code Generator (Lite mode) build 49521"
  1603  00081A                     STR_3:
  1604  00081A  4F                 	db	79	;'O'
  1605  00081B  76                 	db	118	;'v'
  1606  00081C  65                 	db	101	;'e'
  1607  00081D  72                 	db	114	;'r'
  1608  00081E  00                 	db	0
  1609                           opt subtitle "HI-TECH Software Omniscient Code Generator (Lite mode) build 49521"
  1610  00081F                     __end_of__stringdata:
  1611                           opt subtitle "HI-TECH Software Omniscient Code Generator (Lite mode) build 49521"
  1612                           
  1613  0000                     __CFG_CPUDIV$OSC1_PLL2 equ 0x0
  1614                           opt subtitle "HI-TECH Software Omniscient Code Generator (Lite mode) build 49521"
  1615  0000                     __CFG_PLLDIV$5 equ 0x0
  1616                           opt subtitle "HI-TECH Software Omniscient Code Generator (Lite mode) build 49521"
  1617  0000                     __CFG_USBDIV$2 equ 0x0
  1618                           opt subtitle "HI-TECH Software Omniscient Code Generator (Lite mode) build 49521"
  1619  0000                     __CFG_IESO$ON equ 0x0
  1620                           opt subtitle "HI-TECH Software Omniscient Code Generator (Lite mode) build 49521"
  1621  0000                     __CFG_FOSC$HSPLL_HS equ 0x0
  1622                           opt subtitle "HI-TECH Software Omniscient Code Generator (Lite mode) build 49521"
  1623  0000                     __CFG_FCMEN$ON equ 0x0
  1624                           opt subtitle "HI-TECH Software Omniscient Code Generator (Lite mode) build 49521"
  1625  0000                     __CFG_VREGEN$ON equ 0x0
  1626                           opt subtitle "HI-TECH Software Omniscient Code Generator (Lite mode) build 49521"
  1627  0000                     __CFG_BOR$OFF equ 0x0
  1628                           opt subtitle "HI-TECH Software Omniscient Code Generator (Lite mode) build 49521"
  1629  0000                     __CFG_PWRT$ON equ 0x0
  1630                           opt subtitle "HI-TECH Software Omniscient Code Generator (Lite mode) build 49521"
  1631  0000                     __CFG_WDT$OFF equ 0x0
  1632                           opt subtitle "HI-TECH Software Omniscient Code Generator (Lite mode) build 49521"
  1633  0000                     __CFG_CCP2MX$ON equ 0x0
  1634                           opt subtitle "HI-TECH Software Omniscient Code Generator (Lite mode) build 49521"
  1635  0000                     __CFG_PBADEN$ON equ 0x0
  1636                           opt subtitle "HI-TECH Software Omniscient Code Generator (Lite mode) build 49521"
  1637  0000                     __CFG_LPT1OSC$OFF equ 0x0
  1638                           opt subtitle "HI-TECH Software Omniscient Code Generator (Lite mode) build 49521"
  1639  0000                     __CFG_MCLRE$ON equ 0x0
  1640                           opt subtitle "HI-TECH Software Omniscient Code Generator (Lite mode) build 49521"
  1641  0000                     __CFG_DEBUG$OFF equ 0x0
  1642                           opt subtitle "HI-TECH Software Omniscient Code Generator (Lite mode) build 49521"
  1643  0000                     __CFG_STVREN$ON equ 0x0
  1644                           opt subtitle "HI-TECH Software Omniscient Code Generator (Lite mode) build 49521"
  1645  0000                     __CFG_XINST$OFF equ 0x0
  1646                           opt subtitle "HI-TECH Software Omniscient Code Generator (Lite mode) build 49521"
  1647  0000                     __CFG_LVP$OFF equ 0x0
  1648                           opt subtitle "HI-TECH Software Omniscient Code Generator (Lite mode) build 49521"
  1649  0000                     __CFG_WRTB$ON equ 0x0
  1650                           opt subtitle "HI-TECH Software Omniscient Code Generator (Lite mode) build 49521"
  1651                           
  1652                           opt pagewidth 120
  1653                           
  1654  000A82                     __pcinit:
  1655                           opt subtitle "HI-TECH Software Omniscient Code Generator (Lite mode) build 49521"
  1656  000A82                     start_initialization:
  1657                           opt subtitle "HI-TECH Software Omniscient Code Generator (Lite mode) build 49521"
  1658                           
  1659  000A82                     __initialization:
  1660                           opt subtitle "HI-TECH Software Omniscient Code Generator (Lite mode) build 49521"
  1661                           
  1662  000001                     __pbssCOMRAM:
  1663  000001                     lcd_bcd@F5220:
  1664  000001                            ds      10
  1665  00000B                     lcd_float@F5227:
  1666  00000B                            ds      6
  1667                           opt subtitle "HI-TECH Software Omniscient Code Generator (Lite mode) build 49521"
  1668  000011                     _display_control:
  1669  000011                            ds      1
  1670                           opt subtitle "HI-TECH Software Omniscient Code Generator (Lite mode) build 49521"
  1671  000012                     _display_entry:
  1672  000012                            ds      1
  1673                           opt subtitle "HI-TECH Software Omniscient Code Generator (Lite mode) build 49521"
  1674  000013                     _display_shift:
  1675  000013                            ds      1
  1676                           opt subtitle "HI-TECH Software Omniscient Code Generator (Lite mode) build 49521"
  1677                           
  1678                           opt pagewidth 120
  1679  000A82  EE00  F001         lfsr	0,__pbssCOMRAM
  1680  000A86  0E13               movlw	19
  1681  000A88                     clear_0:
  1682  000A88  6AEE               clrf	postinc0,c
  1683  000A8A  06E8               decf	wreg
  1684  000A8C  E1FD               bnz	clear_0
  1685                           opt subtitle "HI-TECH Software Omniscient Code Generator (Lite mode) build 49521"
  1686                           
  1687                           opt pagewidth 120
  1688                           
  1689                           	opt lm
  1690  000A8E                     end_of_initialization:
  1691  000A8E                     __end_of__initialization:	GLOBAL	__Lsmallconst
  1692  000A8E  0E00               	movlw	low highword(__Lsmallconst)
  1693  000A90  6EF8               	movwf	tblptru
  1694  000A92  0E08               	movlw	high(__Lsmallconst)
  1695  000A94  6EF7               	movwf	tblptrh
  1696  000A96  0100               movlb 0
  1697  000A98  EF10  F004         goto _main	;jump to C main() function
  1698                           opt subtitle "HI-TECH Software Omniscient Code Generator (Lite mode) build 49521"
  1699                           
  1700  000014                     __pcstackCOMRAM:
  1701  000014                     ?_lcd_initialize:	; 0 bytes @ 0x0
  1702                           opt subtitle "HI-TECH Software Omniscient Code Generator (Lite mode) build 49521"
  1703  000014                     ?_set_lcd_e:	; 0 bytes @ 0x0
  1704  000014                     ?_lcd_clear:	; 0 bytes @ 0x0
  1705                           opt subtitle "HI-TECH Software Omniscient Code Generator (Lite mode) build 49521"
  1706  000014                     ?_set_lcd_rs:	; 0 bytes @ 0x0
  1707                           opt subtitle "HI-TECH Software Omniscient Code Generator (Lite mode) build 49521"
  1708  000014                     ?_set_lcd_data:	; 0 bytes @ 0x0
  1709  000014                     ?_adc_initialize:	; 0 bytes @ 0x0
  1710  000014                     ??_adc_initialize:	; 0 bytes @ 0x0
  1711  000014                     ?_seg7_initialize:	; 0 bytes @ 0x0
  1712  000014                     ??_seg7_initialize:	; 0 bytes @ 0x0
  1713                           opt subtitle "HI-TECH Software Omniscient Code Generator (Lite mode) build 49521"
  1714  000014                     ?_delay_ms:	; 0 bytes @ 0x0
  1715  000014                     ?_lcd_2ndline:	; 0 bytes @ 0x0
  1716  000014                     ?_main:	; 2 bytes @ 0x0
  1717                           opt subtitle "HI-TECH Software Omniscient Code Generator (Lite mode) build 49521"
  1718  000014                     set_lcd_e@b_output:	; 1 bytes @ 0x0
  1719                           opt subtitle "HI-TECH Software Omniscient Code Generator (Lite mode) build 49521"
  1720  000014                     set_lcd_rs@b_output:	; 1 bytes @ 0x0
  1721                           opt subtitle "HI-TECH Software Omniscient Code Generator (Lite mode) build 49521"
  1722  000014                     set_lcd_data@uc_data:	; 1 bytes @ 0x0
  1723                           opt subtitle "HI-TECH Software Omniscient Code Generator (Lite mode) build 49521"
  1724  000014                     delay_ms@ui_millisecond:	; 2 bytes @ 0x0
  1725  000014                     	ds   1
  1726  000015                     ??_set_lcd_e:	; 0 bytes @ 0x1
  1727                           opt subtitle "HI-TECH Software Omniscient Code Generator (Lite mode) build 49521"
  1728  000015                     ?_send_lcd_data:	; 0 bytes @ 0x1
  1729  000015                     ??_set_lcd_rs:	; 0 bytes @ 0x1
  1730  000015                     ??_set_lcd_data:	; 0 bytes @ 0x1
  1731                           opt subtitle "HI-TECH Software Omniscient Code Generator (Lite mode) build 49521"
  1732  000015                     send_lcd_data@b_rs:	; 1 bytes @ 0x1
  1733  000015                     	ds   1
  1734  000016                     ??_delay_ms:	; 0 bytes @ 0x2
  1735                           opt subtitle "HI-TECH Software Omniscient Code Generator (Lite mode) build 49521"
  1736  000016                     send_lcd_data@uc_data:	; 1 bytes @ 0x2
  1737  000016                     	ds   1
  1738                           opt subtitle "HI-TECH Software Omniscient Code Generator (Lite mode) build 49521"
  1739  000017                     ?_beep:	; 0 bytes @ 0x3
  1740  000017                     ??_send_lcd_data:	; 0 bytes @ 0x3
  1741                           opt subtitle "HI-TECH Software Omniscient Code Generator (Lite mode) build 49521"
  1742  000017                     beep@uc_count:	; 1 bytes @ 0x3
  1743  000017                     	ds   1
  1744  000018                     ??_beep:	; 0 bytes @ 0x4
  1745                           opt subtitle "HI-TECH Software Omniscient Code Generator (Lite mode) build 49521"
  1746  000018                     ?_lcd_goto:	; 0 bytes @ 0x4
  1747  000018                     ??_lcd_clear:	; 0 bytes @ 0x4
  1748  000018                     ??_lcd_2ndline:	; 0 bytes @ 0x4
  1749                           opt subtitle "HI-TECH Software Omniscient Code Generator (Lite mode) build 49521"
  1750  000018                     ?_lcd_putchar:	; 0 bytes @ 0x4
  1751                           opt subtitle "HI-TECH Software Omniscient Code Generator (Lite mode) build 49521"
  1752  000018                     lcd_goto@uc_position:	; 1 bytes @ 0x4
  1753                           opt subtitle "HI-TECH Software Omniscient Code Generator (Lite mode) build 49521"
  1754  000018                     lcd_putchar@c_data:	; 1 bytes @ 0x4
  1755  000018                     	ds   1
  1756  000019                     ??_lcd_goto:	; 0 bytes @ 0x5
  1757  000019                     ??_lcd_putchar:	; 0 bytes @ 0x5
  1758  000019                     	ds   1
  1759  00001A                     ??_lcd_initialize:	; 0 bytes @ 0x6
  1760                           opt subtitle "HI-TECH Software Omniscient Code Generator (Lite mode) build 49521"
  1761  00001A                     ?_lcd_putstr:	; 0 bytes @ 0x6
  1762                           opt subtitle "HI-TECH Software Omniscient Code Generator (Lite mode) build 49521"
  1763  00001A                     lcd_putstr@csz_string:	; 2 bytes @ 0x6
  1764  00001A                     	ds   2
  1765  00001C                     ??_lcd_putstr:	; 0 bytes @ 0x8
  1766  00001C                     ??_main:	; 0 bytes @ 0x8
  1767  00001C                     	ds   1
  1768                           opt subtitle "HI-TECH Software Omniscient Code Generator (Lite mode) build 49521"
  1769                           
  1770                           opt pagewidth 120
  1771                           
  1772                           	opt lm
  1773                           
  1774                           	processor	18F4550
  1775                           porta	equ	0F80h
  1776                           portb	equ	0F81h
  1777                           portc	equ	0F82h
  1778                           portd	equ	0F83h
  1779                           porte	equ	0F84h
  1780                           lata	equ	0F89h
  1781                           latb	equ	0F8Ah
  1782                           latc	equ	0F8Bh
  1783                           latd	equ	0F8Ch
  1784                           late	equ	0F8Dh
  1785                           trisa	equ	0F92h
  1786                           trisb	equ	0F93h
  1787                           trisc	equ	0F94h
  1788                           trisd	equ	0F95h
  1789                           trise	equ	0F96h
  1790                           pie1	equ	0F9Dh
  1791                           pir1	equ	0F9Eh
  1792                           ipr1	equ	0F9Fh
  1793                           pie2	equ	0FA0h
  1794                           pir2	equ	0FA1h
  1795                           ipr2	equ	0FA2h
  1796                           t3con	equ	0FB1h
  1797                           tmr3l	equ	0FB2h
  1798                           tmr3h	equ	0FB3h
  1799                           ccp1con	equ	0FBDh
  1800                           ccpr1l	equ	0FBEh
  1801                           ccpr1h	equ	0FBFh
  1802                           adcon1	equ	0FC1h
  1803                           adcon0	equ	0FC2h
  1804                           adresl	equ	0FC3h
  1805                           adresh	equ	0FC4h
  1806                           sspcon2	equ	0FC5h
  1807                           sspcon1	equ	0FC6h
  1808                           sspstat	equ	0FC7h
  1809                           sspadd	equ	0FC8h
  1810                           sspbuf	equ	0FC9h
  1811                           t2con	equ	0FCAh
  1812                           pr2	equ	0FCBh
  1813                           tmr2	equ	0FCCh
  1814                           t1con	equ	0FCDh
  1815                           tmr1l	equ	0FCEh
  1816                           tmr1h	equ	0FCFh
  1817                           rcon	equ	0FD0h
  1818                           wdtcon	equ	0FD1h
  1819                           lvdcon	equ	0FD2h
  1820                           osccon	equ	0FD3h
  1821                           t0con	equ	0FD5h
  1822                           tmr0l	equ	0FD6h
  1823                           tmr0h	equ	0FD7h
  1824                           status	equ	0FD8h
  1825                           fsr2	equ	0FD9h
  1826                           fsr2l	equ	0FD9h
  1827                           fsr2h	equ	0FDAh
  1828                           plusw2	equ	0FDBh
  1829                           preinc2	equ	0FDCh
  1830                           postdec2	equ	0FDDh
  1831                           postinc2	equ	0FDEh
  1832                           indf2	equ	0FDFh
  1833                           bsr	equ	0FE0h
  1834                           fsr1	equ	0FE1h
  1835                           fsr1l	equ	0FE1h
  1836                           fsr1h	equ	0FE2h
  1837                           plusw1	equ	0FE3h
  1838                           preinc1	equ	0FE4h
  1839                           postdec1	equ	0FE5h
  1840                           postinc1	equ	0FE6h
  1841                           indf1	equ	0FE7h
  1842                           wreg	equ	0FE8h
  1843                           fsr0	equ	0FE9h
  1844                           fsr0l	equ	0FE9h
  1845                           fsr0h	equ	0FEAh
  1846                           plusw0	equ	0FEBh
  1847                           preinc0	equ	0FECh
  1848                           postdec0	equ	0FEDh
  1849                           postinc0	equ	0FEEh
  1850                           indf0	equ	0FEFh
  1851                           intcon3	equ	0FF0h
  1852                           intcon2	equ	0FF1h
  1853                           intcon	equ	0FF2h
  1854                           prod	equ	0FF3h
  1855                           prodl	equ	0FF3h
  1856                           prodh	equ	0FF4h
  1857                           tablat	equ	0FF5h
  1858                           tblptr	equ	0FF6h
  1859                           tblptrl	equ	0FF6h
  1860                           tblptrh	equ	0FF7h
  1861                           tblptru	equ	0FF8h
  1862                           pcl	equ	0FF9h
  1863                           pclat	equ	0FFAh
  1864                           pclath	equ	0FFAh
  1865                           pclatu	equ	0FFBh
  1866                           stkptr	equ	0FFCh
  1867                           tosl	equ	0FFDh
  1868                           tosh	equ	0FFEh
  1869                           tosu	equ	0FFFh
  1870                           skipnz macro
  1871                           	btfsc	status,2
  1872                           	endm
  1873                           	global	__ramtop
  1874                           	global	__accesstop
  1875                           # 46 "C:\Program Files (x86)\Microchip\xc8\v1.12\include\pic18f4550.h"
  1876                           SPPDATA equ 0F62h ;# 
  1877                           # 65 "C:\Program Files (x86)\Microchip\xc8\v1.12\include\pic18f4550.h"
  1878                           SPPCFG equ 0F63h ;# 
  1879                           # 141 "C:\Program Files (x86)\Microchip\xc8\v1.12\include\pic18f4550.h"
  1880                           SPPEPS equ 0F64h ;# 
  1881                           # 214 "C:\Program Files (x86)\Microchip\xc8\v1.12\include\pic18f4550.h"
  1882                           SPPCON equ 0F65h ;# 
  1883                           # 239 "C:\Program Files (x86)\Microchip\xc8\v1.12\include\pic18f4550.h"
  1884                           UFRM equ 0F66h ;# 
  1885                           # 245 "C:\Program Files (x86)\Microchip\xc8\v1.12\include\pic18f4550.h"
  1886                           UFRML equ 0F66h ;# 
  1887                           # 322 "C:\Program Files (x86)\Microchip\xc8\v1.12\include\pic18f4550.h"
  1888                           UFRMH equ 0F67h ;# 
  1889                           # 361 "C:\Program Files (x86)\Microchip\xc8\v1.12\include\pic18f4550.h"
  1890                           UIR equ 0F68h ;# 
  1891                           # 416 "C:\Program Files (x86)\Microchip\xc8\v1.12\include\pic18f4550.h"
  1892                           UIE equ 0F69h ;# 
  1893                           # 471 "C:\Program Files (x86)\Microchip\xc8\v1.12\include\pic18f4550.h"
  1894                           UEIR equ 0F6Ah ;# 
  1895                           # 521 "C:\Program Files (x86)\Microchip\xc8\v1.12\include\pic18f4550.h"
  1896                           UEIE equ 0F6Bh ;# 
  1897                           # 571 "C:\Program Files (x86)\Microchip\xc8\v1.12\include\pic18f4550.h"
  1898                           USTAT equ 0F6Ch ;# 
  1899                           # 630 "C:\Program Files (x86)\Microchip\xc8\v1.12\include\pic18f4550.h"
  1900                           UCON equ 0F6Dh ;# 
  1901                           # 680 "C:\Program Files (x86)\Microchip\xc8\v1.12\include\pic18f4550.h"
  1902                           UADDR equ 0F6Eh ;# 
  1903                           # 743 "C:\Program Files (x86)\Microchip\xc8\v1.12\include\pic18f4550.h"
  1904                           UCFG equ 0F6Fh ;# 
  1905                           # 824 "C:\Program Files (x86)\Microchip\xc8\v1.12\include\pic18f4550.h"
  1906                           UEP0 equ 0F70h ;# 
  1907                           # 955 "C:\Program Files (x86)\Microchip\xc8\v1.12\include\pic18f4550.h"
  1908                           UEP1 equ 0F71h ;# 
  1909                           # 1086 "C:\Program Files (x86)\Microchip\xc8\v1.12\include\pic18f4550.h"
  1910                           UEP2 equ 0F72h ;# 
  1911                           # 1217 "C:\Program Files (x86)\Microchip\xc8\v1.12\include\pic18f4550.h"
  1912                           UEP3 equ 0F73h ;# 
  1913                           # 1348 "C:\Program Files (x86)\Microchip\xc8\v1.12\include\pic18f4550.h"
  1914                           UEP4 equ 0F74h ;# 
  1915                           # 1479 "C:\Program Files (x86)\Microchip\xc8\v1.12\include\pic18f4550.h"
  1916                           UEP5 equ 0F75h ;# 
  1917                           # 1610 "C:\Program Files (x86)\Microchip\xc8\v1.12\include\pic18f4550.h"
  1918                           UEP6 equ 0F76h ;# 
  1919                           # 1741 "C:\Program Files (x86)\Microchip\xc8\v1.12\include\pic18f4550.h"
  1920                           UEP7 equ 0F77h ;# 
  1921                           # 1872 "C:\Program Files (x86)\Microchip\xc8\v1.12\include\pic18f4550.h"
  1922                           UEP8 equ 0F78h ;# 
  1923                           # 1959 "C:\Program Files (x86)\Microchip\xc8\v1.12\include\pic18f4550.h"
  1924                           UEP9 equ 0F79h ;# 
  1925                           # 2046 "C:\Program Files (x86)\Microchip\xc8\v1.12\include\pic18f4550.h"
  1926                           UEP10 equ 0F7Ah ;# 
  1927                           # 2133 "C:\Program Files (x86)\Microchip\xc8\v1.12\include\pic18f4550.h"
  1928                           UEP11 equ 0F7Bh ;# 
  1929                           # 2220 "C:\Program Files (x86)\Microchip\xc8\v1.12\include\pic18f4550.h"
  1930                           UEP12 equ 0F7Ch ;# 
  1931                           # 2307 "C:\Program Files (x86)\Microchip\xc8\v1.12\include\pic18f4550.h"
  1932                           UEP13 equ 0F7Dh ;# 
  1933                           # 2394 "C:\Program Files (x86)\Microchip\xc8\v1.12\include\pic18f4550.h"
  1934                           UEP14 equ 0F7Eh ;# 
  1935                           # 2481 "C:\Program Files (x86)\Microchip\xc8\v1.12\include\pic18f4550.h"
  1936                           UEP15 equ 0F7Fh ;# 
  1937                           # 2568 "C:\Program Files (x86)\Microchip\xc8\v1.12\include\pic18f4550.h"
  1938                           PORTA equ 0F80h ;# 
  1939                           # 2724 "C:\Program Files (x86)\Microchip\xc8\v1.12\include\pic18f4550.h"
  1940                           PORTB equ 0F81h ;# 
  1941                           # 2833 "C:\Program Files (x86)\Microchip\xc8\v1.12\include\pic18f4550.h"
  1942                           PORTC equ 0F82h ;# 
  1943                           # 2986 "C:\Program Files (x86)\Microchip\xc8\v1.12\include\pic18f4550.h"
  1944                           PORTD equ 0F83h ;# 
  1945                           # 3106 "C:\Program Files (x86)\Microchip\xc8\v1.12\include\pic18f4550.h"
  1946                           PORTE equ 0F84h ;# 
  1947                           # 3357 "C:\Program Files (x86)\Microchip\xc8\v1.12\include\pic18f4550.h"
  1948                           LATA equ 0F89h ;# 
  1949                           # 3492 "C:\Program Files (x86)\Microchip\xc8\v1.12\include\pic18f4550.h"
  1950                           LATB equ 0F8Ah ;# 
  1951                           # 3624 "C:\Program Files (x86)\Microchip\xc8\v1.12\include\pic18f4550.h"
  1952                           LATC equ 0F8Bh ;# 
  1953                           # 3739 "C:\Program Files (x86)\Microchip\xc8\v1.12\include\pic18f4550.h"
  1954                           LATD equ 0F8Ch ;# 
  1955                           # 3871 "C:\Program Files (x86)\Microchip\xc8\v1.12\include\pic18f4550.h"
  1956                           LATE equ 0F8Dh ;# 
  1957                           # 3973 "C:\Program Files (x86)\Microchip\xc8\v1.12\include\pic18f4550.h"
  1958                           TRISA equ 0F92h ;# 
  1959                           # 3978 "C:\Program Files (x86)\Microchip\xc8\v1.12\include\pic18f4550.h"
  1960                           DDRA equ 0F92h ;# 
  1961                           # 4170 "C:\Program Files (x86)\Microchip\xc8\v1.12\include\pic18f4550.h"
  1962                           TRISB equ 0F93h ;# 
  1963                           # 4175 "C:\Program Files (x86)\Microchip\xc8\v1.12\include\pic18f4550.h"
  1964                           DDRB equ 0F93h ;# 
  1965                           # 4391 "C:\Program Files (x86)\Microchip\xc8\v1.12\include\pic18f4550.h"
  1966                           TRISC equ 0F94h ;# 
  1967                           # 4396 "C:\Program Files (x86)\Microchip\xc8\v1.12\include\pic18f4550.h"
  1968                           DDRC equ 0F94h ;# 
  1969                           # 4562 "C:\Program Files (x86)\Microchip\xc8\v1.12\include\pic18f4550.h"
  1970                           TRISD equ 0F95h ;# 
  1971                           # 4567 "C:\Program Files (x86)\Microchip\xc8\v1.12\include\pic18f4550.h"
  1972                           DDRD equ 0F95h ;# 
  1973                           # 4783 "C:\Program Files (x86)\Microchip\xc8\v1.12\include\pic18f4550.h"
  1974                           TRISE equ 0F96h ;# 
  1975                           # 4788 "C:\Program Files (x86)\Microchip\xc8\v1.12\include\pic18f4550.h"
  1976                           DDRE equ 0F96h ;# 
  1977                           # 4884 "C:\Program Files (x86)\Microchip\xc8\v1.12\include\pic18f4550.h"
  1978                           OSCTUNE equ 0F9Bh ;# 
  1979                           # 4942 "C:\Program Files (x86)\Microchip\xc8\v1.12\include\pic18f4550.h"
  1980                           PIE1 equ 0F9Dh ;# 
  1981                           # 5030 "C:\Program Files (x86)\Microchip\xc8\v1.12\include\pic18f4550.h"
  1982                           PIR1 equ 0F9Eh ;# 
  1983                           # 5118 "C:\Program Files (x86)\Microchip\xc8\v1.12\include\pic18f4550.h"
  1984                           IPR1 equ 0F9Fh ;# 
  1985                           # 5206 "C:\Program Files (x86)\Microchip\xc8\v1.12\include\pic18f4550.h"
  1986                           PIE2 equ 0FA0h ;# 
  1987                           # 5276 "C:\Program Files (x86)\Microchip\xc8\v1.12\include\pic18f4550.h"
  1988                           PIR2 equ 0FA1h ;# 
  1989                           # 5346 "C:\Program Files (x86)\Microchip\xc8\v1.12\include\pic18f4550.h"
  1990                           IPR2 equ 0FA2h ;# 
  1991                           # 5416 "C:\Program Files (x86)\Microchip\xc8\v1.12\include\pic18f4550.h"
  1992                           EECON1 equ 0FA6h ;# 
  1993                           # 5481 "C:\Program Files (x86)\Microchip\xc8\v1.12\include\pic18f4550.h"
  1994                           EECON2 equ 0FA7h ;# 
  1995                           # 5487 "C:\Program Files (x86)\Microchip\xc8\v1.12\include\pic18f4550.h"
  1996                           EEDATA equ 0FA8h ;# 
  1997                           # 5493 "C:\Program Files (x86)\Microchip\xc8\v1.12\include\pic18f4550.h"
  1998                           EEADR equ 0FA9h ;# 
  1999                           # 5499 "C:\Program Files (x86)\Microchip\xc8\v1.12\include\pic18f4550.h"
  2000                           RCSTA equ 0FABh ;# 
  2001                           # 5504 "C:\Program Files (x86)\Microchip\xc8\v1.12\include\pic18f4550.h"
  2002                           RCSTA1 equ 0FABh ;# 
  2003                           # 5656 "C:\Program Files (x86)\Microchip\xc8\v1.12\include\pic18f4550.h"
  2004                           TXSTA equ 0FACh ;# 
  2005                           # 5661 "C:\Program Files (x86)\Microchip\xc8\v1.12\include\pic18f4550.h"
  2006                           TXSTA1 equ 0FACh ;# 
  2007                           # 5919 "C:\Program Files (x86)\Microchip\xc8\v1.12\include\pic18f4550.h"
  2008                           TXREG equ 0FADh ;# 
  2009                           # 5924 "C:\Program Files (x86)\Microchip\xc8\v1.12\include\pic18f4550.h"
  2010                           TXREG1 equ 0FADh ;# 
  2011                           # 5930 "C:\Program Files (x86)\Microchip\xc8\v1.12\include\pic18f4550.h"
  2012                           RCREG equ 0FAEh ;# 
  2013                           # 5935 "C:\Program Files (x86)\Microchip\xc8\v1.12\include\pic18f4550.h"
  2014                           RCREG1 equ 0FAEh ;# 
  2015                           # 5941 "C:\Program Files (x86)\Microchip\xc8\v1.12\include\pic18f4550.h"
  2016                           SPBRG equ 0FAFh ;# 
  2017                           # 5946 "C:\Program Files (x86)\Microchip\xc8\v1.12\include\pic18f4550.h"
  2018                           SPBRG1 equ 0FAFh ;# 
  2019                           # 5952 "C:\Program Files (x86)\Microchip\xc8\v1.12\include\pic18f4550.h"
  2020                           SPBRGH equ 0FB0h ;# 
  2021                           # 5958 "C:\Program Files (x86)\Microchip\xc8\v1.12\include\pic18f4550.h"
  2022                           T3CON equ 0FB1h ;# 
  2023                           # 6080 "C:\Program Files (x86)\Microchip\xc8\v1.12\include\pic18f4550.h"
  2024                           TMR3 equ 0FB2h ;# 
  2025  000820                     __ptext0:
  2026                           opt subtitle "HI-TECH Software Omniscient Code Generator (Lite mode) build 49521"
  2027                           
  2028                           opt pagewidth 120
  2029                           
  2030  0000                     	__size_of_main	equ	__end_of_main-_main
  2031                           opt subtitle "HI-TECH Software Omniscient Code Generator (Lite mode) build 49521"
  2032  000820                     _main:
  2033                           opt subtitle "HI-TECH Software Omniscient Code Generator (Lite mode) build 49521"
  2034                           
  2035                           opt pagewidth 120
  2036  000820                     l1643:
  2037                           opt subtitle "HI-TECH Software Omniscient Code Generator (Lite mode) build 49521"
  2038  000820  0E00               	movlw	low(0)
  2039  000822  6E80               	movwf	((c:3968)),c	;volatile
  2040                           opt subtitle "HI-TECH Software Omniscient Code Generator (Lite mode) build 49521"
  2041                           
  2042  000824  0E00               	movlw	low(0)
  2043  000826  6E81               	movwf	((c:3969)),c	;volatile
  2044                           opt subtitle "HI-TECH Software Omniscient Code Generator (Lite mode) build 49521"
  2045                           
  2046  000828  0E00               	movlw	low(0)
  2047  00082A  6E82               	movwf	((c:3970)),c	;volatile
  2048                           opt subtitle "HI-TECH Software Omniscient Code Generator (Lite mode) build 49521"
  2049                           
  2050  00082C  0E00               	movlw	low(0)
  2051  00082E  6E83               	movwf	((c:3971)),c	;volatile
  2052                           opt subtitle "HI-TECH Software Omniscient Code Generator (Lite mode) build 49521"
  2053                           
  2054  000830  0E00               	movlw	low(0)
  2055  000832  6E84               	movwf	((c:3972)),c	;volatile
  2056                           opt subtitle "HI-TECH Software Omniscient Code Generator (Lite mode) build 49521"
  2057                           
  2058  000834  0E11               	movlw	low(011h)
  2059  000836  6E92               	movwf	((c:3986)),c	;volatile
  2060                           opt subtitle "HI-TECH Software Omniscient Code Generator (Lite mode) build 49521"
  2061                           
  2062  000838  0E0F               	movlw	low(0Fh)
  2063  00083A  6E93               	movwf	((c:3987)),c	;volatile
  2064                           opt subtitle "HI-TECH Software Omniscient Code Generator (Lite mode) build 49521"
  2065                           
  2066  00083C  0E93               	movlw	low(093h)
  2067  00083E  6E94               	movwf	((c:3988)),c	;volatile
  2068                           opt subtitle "HI-TECH Software Omniscient Code Generator (Lite mode) build 49521"
  2069                           
  2070  000840  0E00               	movlw	low(0)
  2071  000842  6E95               	movwf	((c:3989)),c	;volatile
  2072                           opt subtitle "HI-TECH Software Omniscient Code Generator (Lite mode) build 49521"
  2073                           
  2074  000844  0E00               	movlw	low(0)
  2075  000846  6E96               	movwf	((c:3990)),c	;volatile
  2076                           opt subtitle "HI-TECH Software Omniscient Code Generator (Lite mode) build 49521"
  2077                           
  2078  000848                     l1645:
  2079                           opt subtitle "HI-TECH Software Omniscient Code Generator (Lite mode) build 49521"
  2080  000848  EC23  F005         	call	_adc_initialize	;wreg free
  2081                           opt subtitle "HI-TECH Software Omniscient Code Generator (Lite mode) build 49521"
  2082                           
  2083  00084C                     l1647:
  2084                           opt subtitle "HI-TECH Software Omniscient Code Generator (Lite mode) build 49521"
  2085  00084C  EC32  F005         	call	_seg7_initialize	;wreg free
  2086                           opt subtitle "HI-TECH Software Omniscient Code Generator (Lite mode) build 49521"
  2087                           
  2088  000850                     l1649:
  2089                           opt subtitle "HI-TECH Software Omniscient Code Generator (Lite mode) build 49521"
  2090  000850  EC52  F004         	call	_lcd_initialize	;wreg free
  2091                           opt subtitle "HI-TECH Software Omniscient Code Generator (Lite mode) build 49521"
  2092                           
  2093  000854                     l1651:
  2094                           opt subtitle "HI-TECH Software Omniscient Code Generator (Lite mode) build 49521"
  2095  000854  6E1C               	movwf	(??_main+0+0)&0ffh,c
  2096  000856  0E02               	movlw	low(02h)
  2097  000858  6E17               	movwf	((c:?_beep)),c
  2098  00085A  501C               	movf	(??_main+0+0)&0ffh,c,w
  2099  00085C  EC0B  F005         	call	_beep	;wreg free
  2100                           opt subtitle "HI-TECH Software Omniscient Code Generator (Lite mode) build 49521"
  2101                           
  2102  000860                     l1653:
  2103                           opt subtitle "HI-TECH Software Omniscient Code Generator (Lite mode) build 49521"
  2104  000860  8289               	bsf	((c:3977)),c,1	;volatile
  2105                           opt subtitle "HI-TECH Software Omniscient Code Generator (Lite mode) build 49521"
  2106                           
  2107  000862  D000               	goto	l122
  2108                           opt subtitle "HI-TECH Software Omniscient Code Generator (Lite mode) build 49521"
  2109  000864                     l123:
  2110                           opt subtitle "HI-TECH Software Omniscient Code Generator (Lite mode) build 49521"
  2111  000864                     l122:
  2112  000864  B081               	btfsc	c:(31752/8),(31752)&7	;volatile
  2113  000866  D001               	goto	u401
  2114  000868  D001               	goto	u400
  2115  00086A                     u401:
  2116  00086A  D7FC               	goto	l122
  2117  00086C                     u400:
  2118  00086C  D000               	goto	l1655
  2119                           opt subtitle "HI-TECH Software Omniscient Code Generator (Lite mode) build 49521"
  2120  00086E                     l124:
  2121                           opt subtitle "HI-TECH Software Omniscient Code Generator (Lite mode) build 49521"
  2122                           
  2123  00086E                     l1655:
  2124                           opt subtitle "HI-TECH Software Omniscient Code Generator (Lite mode) build 49521"
  2125  00086E  6E1C               	movwf	(??_main+0+0)&0ffh,c
  2126  000870  0E01               	movlw	low(01h)
  2127  000872  6E18               	movwf	((c:?_lcd_goto)),c
  2128  000874  501C               	movf	(??_main+0+0)&0ffh,c,w
  2129  000876  EC64  F005         	call	_lcd_goto	;wreg free
  2130                           opt subtitle "HI-TECH Software Omniscient Code Generator (Lite mode) build 49521"
  2131                           
  2132  00087A                     l1657:
  2133                           opt subtitle "HI-TECH Software Omniscient Code Generator (Lite mode) build 49521"
  2134  00087A  0E08               	movlw	high(STR_1)
  2135  00087C  6E1B               	movwf	((c:?_lcd_putstr+1)),c
  2136  00087E  0E00               	movlw	low(STR_1)
  2137  000880  6E1A               	movwf	((c:?_lcd_putstr)),c
  2138  000882  EC8A  F004         	call	_lcd_putstr	;wreg free
  2139                           opt subtitle "HI-TECH Software Omniscient Code Generator (Lite mode) build 49521"
  2140                           
  2141  000886                     l1659:
  2142                           opt subtitle "HI-TECH Software Omniscient Code Generator (Lite mode) build 49521"
  2143  000886  6E1C               	movwf	(??_main+0+0)&0ffh,c
  2144  000888  0E42               	movlw	low(042h)
  2145  00088A  6E18               	movwf	((c:?_lcd_goto)),c
  2146  00088C  501C               	movf	(??_main+0+0)&0ffh,c,w
  2147  00088E  EC64  F005         	call	_lcd_goto	;wreg free
  2148                           opt subtitle "HI-TECH Software Omniscient Code Generator (Lite mode) build 49521"
  2149                           
  2150  000892  0E08               	movlw	high(STR_2)
  2151  000894  6E1B               	movwf	((c:?_lcd_putstr+1)),c
  2152  000896  0E0E               	movlw	low(STR_2)
  2153  000898  6E1A               	movwf	((c:?_lcd_putstr)),c
  2154  00089A  EC8A  F004         	call	_lcd_putstr	;wreg free
  2155                           opt subtitle "HI-TECH Software Omniscient Code Generator (Lite mode) build 49521"
  2156                           
  2157                           opt pagewidth 120
  2158  00089E                     l125:
  2159                           opt subtitle "HI-TECH Software Omniscient Code Generator (Lite mode) build 49521"
  2160  00089E                     l126:
  2161  00089E  D7FF               	goto	l125
  2162                           opt subtitle "HI-TECH Software Omniscient Code Generator (Lite mode) build 49521"
  2163  0008A0                     l127:
  2164                           opt subtitle "HI-TECH Software Omniscient Code Generator (Lite mode) build 49521"
  2165                           
  2166  0008A0                     l128:
  2167                           opt subtitle "HI-TECH Software Omniscient Code Generator (Lite mode) build 49521"
  2168  0008A0  EF00  F000         	goto	start
  2169                           opt subtitle "HI-TECH Software Omniscient Code Generator (Lite mode) build 49521"
  2170                           
  2171  0008A4                     	__end_of_main:
  2172                           opt subtitle "HI-TECH Software Omniscient Code Generator (Lite mode) build 49521"
  2173                           
  2174                           opt pagewidth 120
  2175                           
  2176                           	opt lm
  2177                           
  2178                           	processor	18F4550
  2179                           porta	equ	0F80h
  2180                           portb	equ	0F81h
  2181                           portc	equ	0F82h
  2182                           portd	equ	0F83h
  2183                           porte	equ	0F84h
  2184                           lata	equ	0F89h
  2185                           latb	equ	0F8Ah
  2186                           latc	equ	0F8Bh
  2187                           latd	equ	0F8Ch
  2188                           late	equ	0F8Dh
  2189                           trisa	equ	0F92h
  2190                           trisb	equ	0F93h
  2191                           trisc	equ	0F94h
  2192                           trisd	equ	0F95h
  2193                           trise	equ	0F96h
  2194                           pie1	equ	0F9Dh
  2195                           pir1	equ	0F9Eh
  2196                           ipr1	equ	0F9Fh
  2197                           pie2	equ	0FA0h
  2198                           pir2	equ	0FA1h
  2199                           ipr2	equ	0FA2h
  2200                           t3con	equ	0FB1h
  2201                           tmr3l	equ	0FB2h
  2202                           tmr3h	equ	0FB3h
  2203                           ccp1con	equ	0FBDh
  2204                           ccpr1l	equ	0FBEh
  2205  000A46                     __ptext1:
  2206                           opt subtitle "HI-TECH Software Omniscient Code Generator (Lite mode) build 49521"
  2207                           
  2208                           opt pagewidth 120
  2209                           
  2210  0000                     	__size_of_adc_initialize	equ	__end_of_adc_initialize-_adc_initialize
  2211                           opt subtitle "HI-TECH Software Omniscient Code Generator (Lite mode) build 49521"
  2212  000A46                     _adc_initialize:
  2213                           opt subtitle "HI-TECH Software Omniscient Code Generator (Lite mode) build 49521"
  2214                           
  2215                           opt pagewidth 120
  2216  000A46                     l1311:
  2217                           opt subtitle "HI-TECH Software Omniscient Code Generator (Lite mode) build 49521"
  2218  000A46  9AC1               	bcf	c:(32269/8),(32269)&7	;volatile
  2219                           opt subtitle "HI-TECH Software Omniscient Code Generator (Lite mode) build 49521"
  2220                           
  2221  000A48  98C1               	bcf	c:(32268/8),(32268)&7	;volatile
  2222                           opt subtitle "HI-TECH Software Omniscient Code Generator (Lite mode) build 49521"
  2223                           
  2224  000A4A  86C1               	bsf	c:(32267/8),(32267)&7	;volatile
  2225                           opt subtitle "HI-TECH Software Omniscient Code Generator (Lite mode) build 49521"
  2226                           
  2227  000A4C  84C1               	bsf	c:(32266/8),(32266)&7	;volatile
  2228                           opt subtitle "HI-TECH Software Omniscient Code Generator (Lite mode) build 49521"
  2229                           
  2230  000A4E  82C1               	bsf	c:(32265/8),(32265)&7	;volatile
  2231                           opt subtitle "HI-TECH Software Omniscient Code Generator (Lite mode) build 49521"
  2232                           
  2233  000A50  90C1               	bcf	c:(32264/8),(32264)&7	;volatile
  2234                           opt subtitle "HI-TECH Software Omniscient Code Generator (Lite mode) build 49521"
  2235                           
  2236  000A52  8EC0               	bsf	c:(32263/8),(32263)&7	;volatile
  2237                           opt subtitle "HI-TECH Software Omniscient Code Generator (Lite mode) build 49521"
  2238                           
  2239  000A54  84C0               	bsf	c:(32258/8),(32258)&7	;volatile
  2240                           opt subtitle "HI-TECH Software Omniscient Code Generator (Lite mode) build 49521"
  2241                           
  2242  000A56  82C0               	bsf	c:(32257/8),(32257)&7	;volatile
  2243                           opt subtitle "HI-TECH Software Omniscient Code Generator (Lite mode) build 49521"
  2244                           
  2245  000A58  90C0               	bcf	c:(32256/8),(32256)&7	;volatile
  2246                           opt subtitle "HI-TECH Software Omniscient Code Generator (Lite mode) build 49521"
  2247                           
  2248  000A5A  8AC0               	bsf	c:(32261/8),(32261)&7	;volatile
  2249                           opt subtitle "HI-TECH Software Omniscient Code Generator (Lite mode) build 49521"
  2250                           
  2251  000A5C  98C0               	bcf	c:(32260/8),(32260)&7	;volatile
  2252                           opt subtitle "HI-TECH Software Omniscient Code Generator (Lite mode) build 49521"
  2253                           
  2254  000A5E  86C0               	bsf	c:(32259/8),(32259)&7	;volatile
  2255                           opt subtitle "HI-TECH Software Omniscient Code Generator (Lite mode) build 49521"
  2256                           
  2257  000A60  90C2               	bcf	c:(32272/8),(32272)&7	;volatile
  2258                           opt subtitle "HI-TECH Software Omniscient Code Generator (Lite mode) build 49521"
  2259                           
  2260  000A62                     l45:
  2261  000A62  0012               	return
  2262                           opt subtitle "HI-TECH Software Omniscient Code Generator (Lite mode) build 49521"
  2263                           
  2264  000A64                     	__end_of_adc_initialize:
  2265                           opt subtitle "HI-TECH Software Omniscient Code Generator (Lite mode) build 49521"
  2266                           
  2267                           opt pagewidth 120
  2268                           
  2269                           	opt lm
  2270                           
  2271                           	processor	18F4550
  2272                           porta	equ	0F80h
  2273                           portb	equ	0F81h
  2274                           portc	equ	0F82h
  2275                           portd	equ	0F83h
  2276                           porte	equ	0F84h
  2277                           lata	equ	0F89h
  2278                           latb	equ	0F8Ah
  2279                           latc	equ	0F8Bh
  2280                           latd	equ	0F8Ch
  2281                           late	equ	0F8Dh
  2282                           trisa	equ	0F92h
  2283                           trisb	equ	0F93h
  2284                           trisc	equ	0F94h
  2285                           trisd	equ	0F95h
  2286                           trise	equ	0F96h
  2287                           pie1	equ	0F9Dh
  2288                           pir1	equ	0F9Eh
  2289                           ipr1	equ	0F9Fh
  2290                           pie2	equ	0FA0h
  2291                           pir2	equ	0FA1h
  2292                           ipr2	equ	0FA2h
  2293                           t3con	equ	0FB1h
  2294                           tmr3l	equ	0FB2h
  2295                           tmr3h	equ	0FB3h
  2296                           ccp1con	equ	0FBDh
  2297                           ccpr1l	equ	0FBEh
  2298  000A64                     __ptext2:
  2299                           opt subtitle "HI-TECH Software Omniscient Code Generator (Lite mode) build 49521"
  2300                           
  2301                           opt pagewidth 120
  2302                           
  2303  0000                     	__size_of_seg7_initialize	equ	__end_of_seg7_initialize-_seg7_initialize
  2304                           opt subtitle "HI-TECH Software Omniscient Code Generator (Lite mode) build 49521"
  2305  000A64                     _seg7_initialize:
  2306                           opt subtitle "HI-TECH Software Omniscient Code Generator (Lite mode) build 49521"
  2307                           
  2308                           opt pagewidth 120
  2309  000A64                     l1563:
  2310                           opt subtitle "HI-TECH Software Omniscient Code Generator (Lite mode) build 49521"
  2311  000A64  928D               	bcf	c:(31849/8),(31849)&7	;volatile
  2312                           opt subtitle "HI-TECH Software Omniscient Code Generator (Lite mode) build 49521"
  2313                           
  2314  000A66  908D               	bcf	c:(31848/8),(31848)&7	;volatile
  2315                           opt subtitle "HI-TECH Software Omniscient Code Generator (Lite mode) build 49521"
  2316                           
  2317  000A68                     l1565:
  2318                           opt subtitle "HI-TECH Software Omniscient Code Generator (Lite mode) build 49521"
  2319  000A68  508C               	movf	((c:3980)),c,w	;volatile
  2320  000A6A  0BF0               	andlw	low(0F0h)
  2321  000A6C  090A               	iorlw	low(0Ah)
  2322  000A6E  6E8C               	movwf	((c:3980)),c	;volatile
  2323                           opt subtitle "HI-TECH Software Omniscient Code Generator (Lite mode) build 49521"
  2324                           
  2325  000A70                     l1567:
  2326                           opt subtitle "HI-TECH Software Omniscient Code Generator (Lite mode) build 49521"
  2327  000A70  0E08               	movlw	8
  2328  000A72                     u417:
  2329  000A72  2EE8               decfsz	wreg,f
  2330  000A74  D7FE               	goto	u417
  2331                           opt subtitle "HI-TECH Software Omniscient Code Generator (Lite mode) build 49521"
  2332                           
  2333                           opt pagewidth 120
  2334  000A76                     l1569:
  2335                           opt subtitle "HI-TECH Software Omniscient Code Generator (Lite mode) build 49521"
  2336  000A76  828D               	bsf	c:(31849/8),(31849)&7	;volatile
  2337                           opt subtitle "HI-TECH Software Omniscient Code Generator (Lite mode) build 49521"
  2338                           
  2339  000A78                     l1571:
  2340                           opt subtitle "HI-TECH Software Omniscient Code Generator (Lite mode) build 49521"
  2341  000A78  808D               	bsf	c:(31848/8),(31848)&7	;volatile
  2342                           opt subtitle "HI-TECH Software Omniscient Code Generator (Lite mode) build 49521"
  2343                           
  2344  000A7A                     l1573:
  2345                           opt subtitle "HI-TECH Software Omniscient Code Generator (Lite mode) build 49521"
  2346  000A7A  508C               	movf	((c:3980)),c,w	;volatile
  2347  000A7C  0BF0               	andlw	low(0F0h)
  2348  000A7E  6E8C               	movwf	((c:3980)),c	;volatile
  2349                           opt subtitle "HI-TECH Software Omniscient Code Generator (Lite mode) build 49521"
  2350                           
  2351  000A80                     l68:
  2352  000A80  0012               	return
  2353                           opt subtitle "HI-TECH Software Omniscient Code Generator (Lite mode) build 49521"
  2354                           
  2355  000A82                     	__end_of_seg7_initialize:
  2356                           opt subtitle "HI-TECH Software Omniscient Code Generator (Lite mode) build 49521"
  2357                           
  2358                           opt pagewidth 120
  2359                           
  2360                           	opt lm
  2361                           
  2362                           	processor	18F4550
  2363                           porta	equ	0F80h
  2364                           portb	equ	0F81h
  2365                           portc	equ	0F82h
  2366                           portd	equ	0F83h
  2367                           porte	equ	0F84h
  2368                           lata	equ	0F89h
  2369                           latb	equ	0F8Ah
  2370                           latc	equ	0F8Bh
  2371                           latd	equ	0F8Ch
  2372                           late	equ	0F8Dh
  2373                           trisa	equ	0F92h
  2374                           trisb	equ	0F93h
  2375                           trisc	equ	0F94h
  2376                           trisd	equ	0F95h
  2377                           trise	equ	0F96h
  2378                           pie1	equ	0F9Dh
  2379                           pir1	equ	0F9Eh
  2380                           ipr1	equ	0F9Fh
  2381                           pie2	equ	0FA0h
  2382                           pir2	equ	0FA1h
  2383                           ipr2	equ	0FA2h
  2384                           t3con	equ	0FB1h
  2385                           tmr3l	equ	0FB2h
  2386                           tmr3h	equ	0FB3h
  2387                           ccp1con	equ	0FBDh
  2388                           ccpr1l	equ	0FBEh
  2389                           ccpr1h	equ	0FBFh
  2390                           adcon1	equ	0FC1h
  2391                           adcon0	equ	0FC2h
  2392  0008A4                     __ptext3:
  2393                           opt subtitle "HI-TECH Software Omniscient Code Generator (Lite mode) build 49521"
  2394                           
  2395                           opt pagewidth 120
  2396                           
  2397  0000                     	__size_of_lcd_initialize	equ	__end_of_lcd_initialize-_lcd_initialize
  2398                           opt subtitle "HI-TECH Software Omniscient Code Generator (Lite mode) build 49521"
  2399  0008A4                     _lcd_initialize:
  2400                           opt subtitle "HI-TECH Software Omniscient Code Generator (Lite mode) build 49521"
  2401                           
  2402                           opt pagewidth 120
  2403  0008A4                     l1613:
  2404                           opt subtitle "HI-TECH Software Omniscient Code Generator (Lite mode) build 49521"
  2405  0008A4  6E1A               	movwf	(??_lcd_initialize+0+0)&0ffh,c
  2406  0008A6  0E01               	movlw	low(01h)
  2407  0008A8  6E14               	movwf	((c:?_set_lcd_e)),c
  2408  0008AA  501A               	movf	(??_lcd_initialize+0+0)&0ffh,c,w
  2409  0008AC  EC77  F005         	call	_set_lcd_e	;wreg free
  2410                           opt subtitle "HI-TECH Software Omniscient Code Generator (Lite mode) build 49521"
  2411                           
  2412  0008B0                     l1615:
  2413                           opt subtitle "HI-TECH Software Omniscient Code Generator (Lite mode) build 49521"
  2414  0008B0  0EEA               	movlw	234
  2415  0008B2  6E1A               movwf	(??_lcd_initialize+0+0)&0ffh,c,f
  2416  0008B4  0EC3               	movlw	195
  2417  0008B6                     u427:
  2418  0008B6  2EE8               	decfsz	wreg,f
  2419  0008B8  D7FE               	goto	u427
  2420  0008BA  2E1A               	decfsz	(??_lcd_initialize+0+0)&0ffh,c,f
  2421  0008BC  D7FC               	goto	u427
  2422                           opt subtitle "HI-TECH Software Omniscient Code Generator (Lite mode) build 49521"
  2423                           
  2424                           opt pagewidth 120
  2425  0008BE  6E1A               	movwf	(??_lcd_initialize+0+0)&0ffh,c
  2426  0008C0  0E00               	movlw	low(0)
  2427  0008C2  6E15               	movwf	((c:?_send_lcd_data)),c
  2428  0008C4  501A               	movf	(??_lcd_initialize+0+0)&0ffh,c,w
  2429  0008C6  6E1B               	movwf	(??_lcd_initialize+1+0)&0ffh,c
  2430  0008C8  0E38               	movlw	low(038h)
  2431  0008CA  6E16               	movwf	(0+((c:?_send_lcd_data)+01h)),c
  2432  0008CC  501B               	movf	(??_lcd_initialize+1+0)&0ffh,c,w
  2433  0008CE  ECBF  F004         	call	_send_lcd_data	;wreg free
  2434                           opt subtitle "HI-TECH Software Omniscient Code Generator (Lite mode) build 49521"
  2435                           
  2436  0008D2                     l1617:
  2437                           opt subtitle "HI-TECH Software Omniscient Code Generator (Lite mode) build 49521"
  2438  0008D2  6E1A               	movwf	(??_lcd_initialize+0+0)&0ffh,c
  2439  0008D4  0E02               	movlw	low(02h)
  2440  0008D6  6E12               	movwf	((c:_display_entry)),c
  2441  0008D8  501A               	movf	(??_lcd_initialize+0+0)&0ffh,c,w
  2442                           opt subtitle "HI-TECH Software Omniscient Code Generator (Lite mode) build 49521"
  2443                           
  2444  0008DA                     l1619:
  2445                           opt subtitle "HI-TECH Software Omniscient Code Generator (Lite mode) build 49521"
  2446  0008DA  6E1A               	movwf	(??_lcd_initialize+0+0)&0ffh,c
  2447  0008DC  0E00               	movlw	low(0)
  2448  0008DE  6E15               	movwf	((c:?_send_lcd_data)),c
  2449  0008E0  501A               	movf	(??_lcd_initialize+0+0)&0ffh,c,w
  2450  0008E2  5012               	movf	((c:_display_entry)),c,w
  2451  0008E4  0904               	iorlw	low(04h)
  2452  0008E6  6E16               	movwf	(0+((c:?_send_lcd_data)+01h)),c
  2453  0008E8  ECBF  F004         	call	_send_lcd_data	;wreg free
  2454                           opt subtitle "HI-TECH Software Omniscient Code Generator (Lite mode) build 49521"
  2455                           
  2456  0008EC                     l1621:
  2457                           opt subtitle "HI-TECH Software Omniscient Code Generator (Lite mode) build 49521"
  2458  0008EC  6E1A               	movwf	(??_lcd_initialize+0+0)&0ffh,c
  2459  0008EE  0E04               	movlw	low(04h)
  2460  0008F0  6E11               	movwf	((c:_display_control)),c
  2461  0008F2  501A               	movf	(??_lcd_initialize+0+0)&0ffh,c,w
  2462                           opt subtitle "HI-TECH Software Omniscient Code Generator (Lite mode) build 49521"
  2463                           
  2464  0008F4                     l1623:
  2465                           opt subtitle "HI-TECH Software Omniscient Code Generator (Lite mode) build 49521"
  2466  0008F4  6E1A               	movwf	(??_lcd_initialize+0+0)&0ffh,c
  2467  0008F6  0E00               	movlw	low(0)
  2468  0008F8  6E15               	movwf	((c:?_send_lcd_data)),c
  2469  0008FA  501A               	movf	(??_lcd_initialize+0+0)&0ffh,c,w
  2470  0008FC  5011               	movf	((c:_display_control)),c,w
  2471  0008FE  0908               	iorlw	low(08h)
  2472  000900  6E16               	movwf	(0+((c:?_send_lcd_data)+01h)),c
  2473  000902  ECBF  F004         	call	_send_lcd_data	;wreg free
  2474                           opt subtitle "HI-TECH Software Omniscient Code Generator (Lite mode) build 49521"
  2475                           
  2476  000906                     l1625:
  2477                           opt subtitle "HI-TECH Software Omniscient Code Generator (Lite mode) build 49521"
  2478  000906  6E1A               	movwf	(??_lcd_initialize+0+0)&0ffh,c
  2479  000908  0E0C               	movlw	low(0Ch)
  2480  00090A  6E13               	movwf	((c:_display_shift)),c
  2481  00090C  501A               	movf	(??_lcd_initialize+0+0)&0ffh,c,w
  2482                           opt subtitle "HI-TECH Software Omniscient Code Generator (Lite mode) build 49521"
  2483                           
  2484  00090E                     l1627:
  2485                           opt subtitle "HI-TECH Software Omniscient Code Generator (Lite mode) build 49521"
  2486  00090E  EC4E  F005         	call	_lcd_clear	;wreg free
  2487                           opt subtitle "HI-TECH Software Omniscient Code Generator (Lite mode) build 49521"
  2488                           
  2489  000912                     l171:
  2490  000912  0012               	return
  2491                           opt subtitle "HI-TECH Software Omniscient Code Generator (Lite mode) build 49521"
  2492                           
  2493  000914                     	__end_of_lcd_initialize:
  2494                           opt subtitle "HI-TECH Software Omniscient Code Generator (Lite mode) build 49521"
  2495                           
  2496                           opt pagewidth 120
  2497                           
  2498                           	opt lm
  2499                           
  2500                           	processor	18F4550
  2501                           porta	equ	0F80h
  2502                           portb	equ	0F81h
  2503                           portc	equ	0F82h
  2504                           portd	equ	0F83h
  2505                           porte	equ	0F84h
  2506                           lata	equ	0F89h
  2507                           latb	equ	0F8Ah
  2508                           latc	equ	0F8Bh
  2509                           latd	equ	0F8Ch
  2510                           late	equ	0F8Dh
  2511                           trisa	equ	0F92h
  2512                           trisb	equ	0F93h
  2513                           trisc	equ	0F94h
  2514                           trisd	equ	0F95h
  2515                           trise	equ	0F96h
  2516                           pie1	equ	0F9Dh
  2517                           pir1	equ	0F9Eh
  2518                           ipr1	equ	0F9Fh
  2519                           pie2	equ	0FA0h
  2520                           pir2	equ	0FA1h
  2521                           ipr2	equ	0FA2h
  2522                           t3con	equ	0FB1h
  2523                           tmr3l	equ	0FB2h
  2524                           tmr3h	equ	0FB3h
  2525                           ccp1con	equ	0FBDh
  2526                           ccpr1l	equ	0FBEh
  2527                           ccpr1h	equ	0FBFh
  2528  000A16                     __ptext4:
  2529                           opt subtitle "HI-TECH Software Omniscient Code Generator (Lite mode) build 49521"
  2530                           
  2531                           opt pagewidth 120
  2532                           
  2533  0000                     	__size_of_beep	equ	__end_of_beep-_beep
  2534                           opt subtitle "HI-TECH Software Omniscient Code Generator (Lite mode) build 49521"
  2535  000A16                     _beep:
  2536                           opt subtitle "HI-TECH Software Omniscient Code Generator (Lite mode) build 49521"
  2537                           
  2538                           opt pagewidth 120
  2539  000A16                     l1597:
  2540                           opt subtitle "HI-TECH Software Omniscient Code Generator (Lite mode) build 49521"
  2541  000A16  D00F               	goto	l1603
  2542                           opt subtitle "HI-TECH Software Omniscient Code Generator (Lite mode) build 49521"
  2543  000A18                     l142:
  2544                           opt subtitle "HI-TECH Software Omniscient Code Generator (Lite mode) build 49521"
  2545                           
  2546                           opt pagewidth 120
  2547  000A18  848B               	bsf	c:(31834/8),(31834)&7	;volatile
  2548                           opt subtitle "HI-TECH Software Omniscient Code Generator (Lite mode) build 49521"
  2549                           
  2550  000A1A                     l1599:
  2551                           opt subtitle "HI-TECH Software Omniscient Code Generator (Lite mode) build 49521"
  2552  000A1A  0E00               	movlw	high(032h)
  2553  000A1C  6E15               	movwf	((c:?_delay_ms+1)),c
  2554  000A1E  0E32               	movlw	low(032h)
  2555  000A20  6E14               	movwf	((c:?_delay_ms)),c
  2556  000A22  ECF0  F004         	call	_delay_ms	;wreg free
  2557                           opt subtitle "HI-TECH Software Omniscient Code Generator (Lite mode) build 49521"
  2558                           
  2559  000A26                     l1601:
  2560                           opt subtitle "HI-TECH Software Omniscient Code Generator (Lite mode) build 49521"
  2561  000A26  948B               	bcf	c:(31834/8),(31834)&7	;volatile
  2562                           opt subtitle "HI-TECH Software Omniscient Code Generator (Lite mode) build 49521"
  2563                           
  2564  000A28  0E00               	movlw	high(032h)
  2565  000A2A  6E15               	movwf	((c:?_delay_ms+1)),c
  2566  000A2C  0E32               	movlw	low(032h)
  2567  000A2E  6E14               	movwf	((c:?_delay_ms)),c
  2568  000A30  ECF0  F004         	call	_delay_ms	;wreg free
  2569  000A34  D000               	goto	l1603
  2570                           opt subtitle "HI-TECH Software Omniscient Code Generator (Lite mode) build 49521"
  2571                           
  2572  000A36                     l141:
  2573                           opt subtitle "HI-TECH Software Omniscient Code Generator (Lite mode) build 49521"
  2574                           
  2575  000A36                     l1603:
  2576  000A36  0617               	decf	((c:beep@uc_count)),c
  2577  000A38  2817               	incf	((c:beep@uc_count))&0ffh,w
  2578                           opt subtitle "HI-TECH Software Omniscient Code Generator (Lite mode) build 49521"
  2579  000A3A  A4D8               	btfss	status,2
  2580  000A3C  D001               	goto	u361
  2581  000A3E  D001               	goto	u360
  2582  000A40                     u361:
  2583  000A40  D7EB               	goto	l142
  2584  000A42                     u360:
  2585  000A42  D000               	goto	l144
  2586                           opt subtitle "HI-TECH Software Omniscient Code Generator (Lite mode) build 49521"
  2587  000A44                     l143:
  2588                           opt subtitle "HI-TECH Software Omniscient Code Generator (Lite mode) build 49521"
  2589                           
  2590  000A44                     l144:
  2591  000A44  0012               	return
  2592                           opt subtitle "HI-TECH Software Omniscient Code Generator (Lite mode) build 49521"
  2593                           
  2594  000A46                     	__end_of_beep:
  2595                           opt subtitle "HI-TECH Software Omniscient Code Generator (Lite mode) build 49521"
  2596                           
  2597                           opt pagewidth 120
  2598                           
  2599                           	opt lm
  2600                           
  2601                           	processor	18F4550
  2602                           porta	equ	0F80h
  2603                           portb	equ	0F81h
  2604                           portc	equ	0F82h
  2605                           portd	equ	0F83h
  2606                           porte	equ	0F84h
  2607                           lata	equ	0F89h
  2608                           latb	equ	0F8Ah
  2609                           latc	equ	0F8Bh
  2610                           latd	equ	0F8Ch
  2611                           late	equ	0F8Dh
  2612                           trisa	equ	0F92h
  2613                           trisb	equ	0F93h
  2614                           trisc	equ	0F94h
  2615                           trisd	equ	0F95h
  2616                           trise	equ	0F96h
  2617                           pie1	equ	0F9Dh
  2618                           pir1	equ	0F9Eh
  2619                           ipr1	equ	0F9Fh
  2620                           pie2	equ	0FA0h
  2621                           pir2	equ	0FA1h
  2622                           ipr2	equ	0FA2h
  2623                           t3con	equ	0FB1h
  2624                           tmr3l	equ	0FB2h
  2625                           tmr3h	equ	0FB3h
  2626                           ccp1con	equ	0FBDh
  2627                           ccpr1l	equ	0FBEh
  2628                           ccpr1h	equ	0FBFh
  2629  000AC8                     __ptext5:
  2630                           opt subtitle "HI-TECH Software Omniscient Code Generator (Lite mode) build 49521"
  2631                           
  2632                           opt pagewidth 120
  2633                           
  2634  0000                     	__size_of_lcd_goto	equ	__end_of_lcd_goto-_lcd_goto
  2635                           opt subtitle "HI-TECH Software Omniscient Code Generator (Lite mode) build 49521"
  2636  000AC8                     _lcd_goto:
  2637                           opt subtitle "HI-TECH Software Omniscient Code Generator (Lite mode) build 49521"
  2638                           
  2639                           opt pagewidth 120
  2640  000AC8                     l1605:
  2641                           opt subtitle "HI-TECH Software Omniscient Code Generator (Lite mode) build 49521"
  2642  000AC8  6E19               	movwf	(??_lcd_goto+0+0)&0ffh,c
  2643  000ACA  0E00               	movlw	low(0)
  2644  000ACC  6E15               	movwf	((c:?_send_lcd_data)),c
  2645  000ACE  5019               	movf	(??_lcd_goto+0+0)&0ffh,c,w
  2646  000AD0  5018               	movf	((c:lcd_goto@uc_position)),c,w
  2647  000AD2  0980               	iorlw	low(080h)
  2648  000AD4  6E16               	movwf	(0+((c:?_send_lcd_data)+01h)),c
  2649  000AD6  ECBF  F004         	call	_send_lcd_data	;wreg free
  2650                           opt subtitle "HI-TECH Software Omniscient Code Generator (Lite mode) build 49521"
  2651                           
  2652  000ADA                     l186:
  2653  000ADA  0012               	return
  2654                           opt subtitle "HI-TECH Software Omniscient Code Generator (Lite mode) build 49521"
  2655                           
  2656  000ADC                     	__end_of_lcd_goto:
  2657                           opt subtitle "HI-TECH Software Omniscient Code Generator (Lite mode) build 49521"
  2658                           
  2659                           opt pagewidth 120
  2660                           
  2661                           	opt lm
  2662                           
  2663                           	processor	18F4550
  2664                           porta	equ	0F80h
  2665                           portb	equ	0F81h
  2666                           portc	equ	0F82h
  2667                           portd	equ	0F83h
  2668                           porte	equ	0F84h
  2669                           lata	equ	0F89h
  2670                           latb	equ	0F8Ah
  2671                           latc	equ	0F8Bh
  2672                           latd	equ	0F8Ch
  2673                           late	equ	0F8Dh
  2674                           trisa	equ	0F92h
  2675                           trisb	equ	0F93h
  2676                           trisc	equ	0F94h
  2677                           trisd	equ	0F95h
  2678                           trise	equ	0F96h
  2679                           pie1	equ	0F9Dh
  2680                           pir1	equ	0F9Eh
  2681                           ipr1	equ	0F9Fh
  2682                           pie2	equ	0FA0h
  2683                           pir2	equ	0FA1h
  2684                           ipr2	equ	0FA2h
  2685                           t3con	equ	0FB1h
  2686                           tmr3l	equ	0FB2h
  2687                           tmr3h	equ	0FB3h
  2688                           ccp1con	equ	0FBDh
  2689                           ccpr1l	equ	0FBEh
  2690                           ccpr1h	equ	0FBFh
  2691                           adcon1	equ	0FC1h
  2692                           adcon0	equ	0FC2h
  2693                           adresl	equ	0FC3h
  2694                           adresh	equ	0FC4h
  2695  000914                     __ptext6:
  2696                           opt subtitle "HI-TECH Software Omniscient Code Generator (Lite mode) build 49521"
  2697                           
  2698                           opt pagewidth 120
  2699                           
  2700  0000                     	__size_of_lcd_putstr	equ	__end_of_lcd_putstr-_lcd_putstr
  2701                           opt subtitle "HI-TECH Software Omniscient Code Generator (Lite mode) build 49521"
  2702  000914                     _lcd_putstr:
  2703                           opt subtitle "HI-TECH Software Omniscient Code Generator (Lite mode) build 49521"
  2704                           
  2705                           opt pagewidth 120
  2706  000914                     l1629:
  2707                           opt subtitle "HI-TECH Software Omniscient Code Generator (Lite mode) build 49521"
  2708  000914  D027               	goto	l1641
  2709                           opt subtitle "HI-TECH Software Omniscient Code Generator (Lite mode) build 49521"
  2710  000916                     l193:
  2711                           opt subtitle "HI-TECH Software Omniscient Code Generator (Lite mode) build 49521"
  2712                           
  2713  000916                     l1631:
  2714                           opt subtitle "HI-TECH Software Omniscient Code Generator (Lite mode) build 49521"
  2715  000916  C01A  FFF6         	movff	(c:lcd_putstr@csz_string),tblptrl
  2716  00091A  C01B  FFF7         	movff	(c:lcd_putstr@csz_string+1),tblptrh
  2717  00091E  0008               	tblrd	*
  2718                           opt subtitle "HI-TECH Software Omniscient Code Generator (Lite mode) build 49521"
  2719  000920  50F5               	movf	tablat,w
  2720                           opt subtitle "HI-TECH Software Omniscient Code Generator (Lite mode) build 49521"
  2721  000922  0A0A               	xorlw	0Ah
  2722  000924  B4D8               	btfsc	status,2
  2723  000926  D001               	goto	u371
  2724  000928  D001               	goto	u370
  2725  00092A                     u371:
  2726  00092A  D00C               	goto	l1635
  2727  00092C                     u370:
  2728                           opt subtitle "HI-TECH Software Omniscient Code Generator (Lite mode) build 49521"
  2729  00092C                     l1633:
  2730  00092C  C01A  FFF6         	movff	(c:lcd_putstr@csz_string),tblptrl
  2731  000930  C01B  FFF7         	movff	(c:lcd_putstr@csz_string+1),tblptrh
  2732  000934  0008               	tblrd	*
  2733                           opt subtitle "HI-TECH Software Omniscient Code Generator (Lite mode) build 49521"
  2734  000936  50F5               	movf	tablat,w
  2735                           opt subtitle "HI-TECH Software Omniscient Code Generator (Lite mode) build 49521"
  2736  000938  0A0D               	xorlw	0Dh
  2737  00093A  A4D8               	btfss	status,2
  2738  00093C  D001               	goto	u381
  2739  00093E  D001               	goto	u380
  2740  000940                     u381:
  2741  000940  D004               	goto	l1637
  2742  000942                     u380:
  2743  000942  D000               	goto	l1635
  2744                           opt subtitle "HI-TECH Software Omniscient Code Generator (Lite mode) build 49521"
  2745  000944                     l196:
  2746                           opt subtitle "HI-TECH Software Omniscient Code Generator (Lite mode) build 49521"
  2747                           
  2748  000944                     l1635:
  2749                           opt subtitle "HI-TECH Software Omniscient Code Generator (Lite mode) build 49521"
  2750  000944  EC59  F005         	call	_lcd_2ndline	;wreg free
  2751                           opt subtitle "HI-TECH Software Omniscient Code Generator (Lite mode) build 49521"
  2752                           
  2753  000948  D00A               	goto	l1639
  2754                           opt subtitle "HI-TECH Software Omniscient Code Generator (Lite mode) build 49521"
  2755                           
  2756  00094A                     l194:
  2757                           opt subtitle "HI-TECH Software Omniscient Code Generator (Lite mode) build 49521"
  2758                           
  2759  00094A                     l1637:
  2760                           opt subtitle "HI-TECH Software Omniscient Code Generator (Lite mode) build 49521"
  2761                           
  2762  00094A  C01A  FFF6         	movff	(c:lcd_putstr@csz_string),tblptrl
  2763  00094E  C01B  FFF7         	movff	(c:lcd_putstr@csz_string+1),tblptrh
  2764  000952  0008               	tblrd	*
  2765                           opt subtitle "HI-TECH Software Omniscient Code Generator (Lite mode) build 49521"
  2766  000954  CFF5 F018          	movff	tablat,(c:?_lcd_putchar)
  2767  000958  EC6E  F005         	call	_lcd_putchar	;wreg free
  2768  00095C  D000               	goto	l1639
  2769                           opt subtitle "HI-TECH Software Omniscient Code Generator (Lite mode) build 49521"
  2770                           
  2771  00095E                     l197:
  2772                           opt subtitle "HI-TECH Software Omniscient Code Generator (Lite mode) build 49521"
  2773                           
  2774  00095E                     l1639:
  2775                           opt subtitle "HI-TECH Software Omniscient Code Generator (Lite mode) build 49521"
  2776                           
  2777  00095E  4A1A               	infsnz	((c:lcd_putstr@csz_string)),c
  2778  000960  2A1B               	incf	((c:lcd_putstr@csz_string+1)),c
  2779  000962  D000               	goto	l1641
  2780                           opt subtitle "HI-TECH Software Omniscient Code Generator (Lite mode) build 49521"
  2781                           
  2782  000964                     l192:
  2783                           opt subtitle "HI-TECH Software Omniscient Code Generator (Lite mode) build 49521"
  2784                           
  2785  000964                     l1641:
  2786  000964  C01A  FFF6         	movff	(c:lcd_putstr@csz_string),tblptrl
  2787  000968  C01B  FFF7         	movff	(c:lcd_putstr@csz_string+1),tblptrh
  2788  00096C  0008               	tblrd	*
  2789                           opt subtitle "HI-TECH Software Omniscient Code Generator (Lite mode) build 49521"
  2790  00096E  50F5               	movf	tablat,w
  2791                           opt subtitle "HI-TECH Software Omniscient Code Generator (Lite mode) build 49521"
  2792  000970  0900               	iorlw	0
  2793  000972  A4D8               	btfss	status,2
  2794  000974  D001               	goto	u391
  2795  000976  D001               	goto	u390
  2796  000978                     u391:
  2797  000978  D7CE               	goto	l1631
  2798  00097A                     u390:
  2799  00097A  D000               	goto	l199
  2800                           opt subtitle "HI-TECH Software Omniscient Code Generator (Lite mode) build 49521"
  2801  00097C                     l198:
  2802                           opt subtitle "HI-TECH Software Omniscient Code Generator (Lite mode) build 49521"
  2803                           
  2804  00097C                     l199:
  2805  00097C  0012               	return
  2806                           opt subtitle "HI-TECH Software Omniscient Code Generator (Lite mode) build 49521"
  2807                           
  2808  00097E                     	__end_of_lcd_putstr:
  2809                           opt subtitle "HI-TECH Software Omniscient Code Generator (Lite mode) build 49521"
  2810                           
  2811                           opt pagewidth 120
  2812                           
  2813                           	opt lm
  2814                           
  2815                           	processor	18F4550
  2816                           porta	equ	0F80h
  2817                           portb	equ	0F81h
  2818                           portc	equ	0F82h
  2819                           portd	equ	0F83h
  2820                           porte	equ	0F84h
  2821                           lata	equ	0F89h
  2822                           latb	equ	0F8Ah
  2823                           latc	equ	0F8Bh
  2824                           latd	equ	0F8Ch
  2825                           late	equ	0F8Dh
  2826                           trisa	equ	0F92h
  2827                           trisb	equ	0F93h
  2828                           trisc	equ	0F94h
  2829                           trisd	equ	0F95h
  2830                           trise	equ	0F96h
  2831                           pie1	equ	0F9Dh
  2832                           pir1	equ	0F9Eh
  2833                           ipr1	equ	0F9Fh
  2834                           pie2	equ	0FA0h
  2835                           pir2	equ	0FA1h
  2836                           ipr2	equ	0FA2h
  2837                           t3con	equ	0FB1h
  2838                           tmr3l	equ	0FB2h
  2839                           tmr3h	equ	0FB3h
  2840                           ccp1con	equ	0FBDh
  2841                           ccpr1l	equ	0FBEh
  2842  0009E0                     __ptext7:
  2843                           opt subtitle "HI-TECH Software Omniscient Code Generator (Lite mode) build 49521"
  2844                           
  2845                           opt pagewidth 120
  2846                           
  2847  0000                     	__size_of_delay_ms	equ	__end_of_delay_ms-_delay_ms
  2848                           opt subtitle "HI-TECH Software Omniscient Code Generator (Lite mode) build 49521"
  2849  0009E0                     _delay_ms:
  2850                           opt subtitle "HI-TECH Software Omniscient Code Generator (Lite mode) build 49521"
  2851                           
  2852                           opt pagewidth 120
  2853  0009E0                     l1575:
  2854                           opt subtitle "HI-TECH Software Omniscient Code Generator (Lite mode) build 49521"
  2855  0009E0  5015               	movf	((c:delay_ms@ui_millisecond+1)),c,w
  2856  0009E2  1014               	iorwf ((c:delay_ms@ui_millisecond)),c,w
  2857                           opt subtitle "HI-TECH Software Omniscient Code Generator (Lite mode) build 49521"
  2858  0009E4  A4D8               	btfss	status,2
  2859  0009E6  D001               	goto	u341
  2860  0009E8  D001               	goto	u340
  2861  0009EA                     u341:
  2862  0009EA  D002               	goto	l1579
  2863  0009EC                     u340:
  2864  0009EC  D013               	goto	l138
  2865                           opt subtitle "HI-TECH Software Omniscient Code Generator (Lite mode) build 49521"
  2866  0009EE                     l1577:
  2867  0009EE  D012               	goto	l138
  2868                           opt subtitle "HI-TECH Software Omniscient Code Generator (Lite mode) build 49521"
  2869                           
  2870  0009F0                     l136:
  2871                           opt subtitle "HI-TECH Software Omniscient Code Generator (Lite mode) build 49521"
  2872                           
  2873  0009F0                     l1579:
  2874                           opt subtitle "HI-TECH Software Omniscient Code Generator (Lite mode) build 49521"
  2875                           
  2876  0009F0  0E10               	movlw	16
  2877  0009F2  6E16               movwf	(??_delay_ms+0+0)&0ffh,c,f
  2878  0009F4  0E94               	movlw	148
  2879  0009F6                     u437:
  2880  0009F6  2EE8               	decfsz	wreg,f
  2881  0009F8  D7FE               	goto	u437
  2882  0009FA  2E16               	decfsz	(??_delay_ms+0+0)&0ffh,c,f
  2883  0009FC  D7FC               	goto	u437
  2884  0009FE  F000               	nop
  2885                           opt subtitle "HI-TECH Software Omniscient Code Generator (Lite mode) build 49521"
  2886                           
  2887                           opt pagewidth 120
  2888  000A00                     l1581:
  2889  000A00  0614               	decf	((c:delay_ms@ui_millisecond)),c
  2890  000A02  A0D8               	btfss	status,0
  2891  000A04  0615               	decf	((c:delay_ms@ui_millisecond+1)),c
  2892  000A06  5015               	movf	((c:delay_ms@ui_millisecond+1)),c,w
  2893  000A08  1014               	iorwf ((c:delay_ms@ui_millisecond)),c,w
  2894                           opt subtitle "HI-TECH Software Omniscient Code Generator (Lite mode) build 49521"
  2895  000A0A  A4D8               	btfss	status,2
  2896  000A0C  D001               	goto	u351
  2897  000A0E  D001               	goto	u350
  2898  000A10                     u351:
  2899  000A10  D7EF               	goto	l1579
  2900  000A12                     u350:
  2901  000A12  D000               	goto	l138
  2902                           opt subtitle "HI-TECH Software Omniscient Code Generator (Lite mode) build 49521"
  2903  000A14                     l137:
  2904                           opt subtitle "HI-TECH Software Omniscient Code Generator (Lite mode) build 49521"
  2905                           
  2906  000A14                     l138:
  2907  000A14  0012               	return
  2908                           opt subtitle "HI-TECH Software Omniscient Code Generator (Lite mode) build 49521"
  2909                           
  2910  000A16                     	__end_of_delay_ms:
  2911                           opt subtitle "HI-TECH Software Omniscient Code Generator (Lite mode) build 49521"
  2912                           
  2913                           opt pagewidth 120
  2914                           
  2915                           	opt lm
  2916                           
  2917                           	processor	18F4550
  2918                           porta	equ	0F80h
  2919                           portb	equ	0F81h
  2920                           portc	equ	0F82h
  2921                           portd	equ	0F83h
  2922                           porte	equ	0F84h
  2923                           lata	equ	0F89h
  2924                           latb	equ	0F8Ah
  2925                           latc	equ	0F8Bh
  2926                           latd	equ	0F8Ch
  2927                           late	equ	0F8Dh
  2928                           trisa	equ	0F92h
  2929                           trisb	equ	0F93h
  2930                           trisc	equ	0F94h
  2931                           trisd	equ	0F95h
  2932                           trise	equ	0F96h
  2933                           pie1	equ	0F9Dh
  2934                           pir1	equ	0F9Eh
  2935                           ipr1	equ	0F9Fh
  2936                           pie2	equ	0FA0h
  2937                           pir2	equ	0FA1h
  2938                           ipr2	equ	0FA2h
  2939                           t3con	equ	0FB1h
  2940                           tmr3l	equ	0FB2h
  2941                           tmr3h	equ	0FB3h
  2942                           ccp1con	equ	0FBDh
  2943                           ccpr1l	equ	0FBEh
  2944                           ccpr1h	equ	0FBFh
  2945                           adcon1	equ	0FC1h
  2946  000A9C                     __ptext8:
  2947                           opt subtitle "HI-TECH Software Omniscient Code Generator (Lite mode) build 49521"
  2948                           
  2949                           opt pagewidth 120
  2950                           
  2951  0000                     	__size_of_lcd_clear	equ	__end_of_lcd_clear-_lcd_clear
  2952                           opt subtitle "HI-TECH Software Omniscient Code Generator (Lite mode) build 49521"
  2953  000A9C                     _lcd_clear:
  2954                           opt subtitle "HI-TECH Software Omniscient Code Generator (Lite mode) build 49521"
  2955                           
  2956                           opt pagewidth 120
  2957  000A9C                     l1607:
  2958                           opt subtitle "HI-TECH Software Omniscient Code Generator (Lite mode) build 49521"
  2959  000A9C  6E18               	movwf	(??_lcd_clear+0+0)&0ffh,c
  2960  000A9E  0E00               	movlw	low(0)
  2961  000AA0  6E15               	movwf	((c:?_send_lcd_data)),c
  2962  000AA2  5018               	movf	(??_lcd_clear+0+0)&0ffh,c,w
  2963  000AA4  6E19               	movwf	(??_lcd_clear+1+0)&0ffh,c
  2964  000AA6  0E01               	movlw	low(01h)
  2965  000AA8  6E16               	movwf	(0+((c:?_send_lcd_data)+01h)),c
  2966  000AAA  5019               	movf	(??_lcd_clear+1+0)&0ffh,c,w
  2967  000AAC  ECBF  F004         	call	_send_lcd_data	;wreg free
  2968                           opt subtitle "HI-TECH Software Omniscient Code Generator (Lite mode) build 49521"
  2969                           
  2970  000AB0                     l177:
  2971  000AB0  0012               	return
  2972                           opt subtitle "HI-TECH Software Omniscient Code Generator (Lite mode) build 49521"
  2973                           
  2974  000AB2                     	__end_of_lcd_clear:
  2975                           opt subtitle "HI-TECH Software Omniscient Code Generator (Lite mode) build 49521"
  2976                           
  2977                           opt pagewidth 120
  2978                           
  2979                           	opt lm
  2980                           
  2981                           	processor	18F4550
  2982                           porta	equ	0F80h
  2983                           portb	equ	0F81h
  2984                           portc	equ	0F82h
  2985                           portd	equ	0F83h
  2986                           porte	equ	0F84h
  2987                           lata	equ	0F89h
  2988                           latb	equ	0F8Ah
  2989                           latc	equ	0F8Bh
  2990                           latd	equ	0F8Ch
  2991                           late	equ	0F8Dh
  2992                           trisa	equ	0F92h
  2993                           trisb	equ	0F93h
  2994                           trisc	equ	0F94h
  2995                           trisd	equ	0F95h
  2996                           trise	equ	0F96h
  2997                           pie1	equ	0F9Dh
  2998                           pir1	equ	0F9Eh
  2999                           ipr1	equ	0F9Fh
  3000                           pie2	equ	0FA0h
  3001                           pir2	equ	0FA1h
  3002                           ipr2	equ	0FA2h
  3003                           t3con	equ	0FB1h
  3004                           tmr3l	equ	0FB2h
  3005                           tmr3h	equ	0FB3h
  3006                           ccp1con	equ	0FBDh
  3007                           ccpr1l	equ	0FBEh
  3008                           ccpr1h	equ	0FBFh
  3009                           adcon1	equ	0FC1h
  3010  000AB2                     __ptext9:
  3011                           opt subtitle "HI-TECH Software Omniscient Code Generator (Lite mode) build 49521"
  3012                           
  3013                           opt pagewidth 120
  3014                           
  3015  0000                     	__size_of_lcd_2ndline	equ	__end_of_lcd_2ndline-_lcd_2ndline
  3016                           opt subtitle "HI-TECH Software Omniscient Code Generator (Lite mode) build 49521"
  3017  000AB2                     _lcd_2ndline:
  3018                           opt subtitle "HI-TECH Software Omniscient Code Generator (Lite mode) build 49521"
  3019                           
  3020                           opt pagewidth 120
  3021  000AB2                     l1609:
  3022                           opt subtitle "HI-TECH Software Omniscient Code Generator (Lite mode) build 49521"
  3023  000AB2  6E18               	movwf	(??_lcd_2ndline+0+0)&0ffh,c
  3024  000AB4  0E00               	movlw	low(0)
  3025  000AB6  6E15               	movwf	((c:?_send_lcd_data)),c
  3026  000AB8  5018               	movf	(??_lcd_2ndline+0+0)&0ffh,c,w
  3027  000ABA  6E19               	movwf	(??_lcd_2ndline+1+0)&0ffh,c
  3028  000ABC  0EC0               	movlw	low(0C0h)
  3029  000ABE  6E16               	movwf	(0+((c:?_send_lcd_data)+01h)),c
  3030  000AC0  5019               	movf	(??_lcd_2ndline+1+0)&0ffh,c,w
  3031  000AC2  ECBF  F004         	call	_send_lcd_data	;wreg free
  3032                           opt subtitle "HI-TECH Software Omniscient Code Generator (Lite mode) build 49521"
  3033                           
  3034  000AC6                     l183:
  3035  000AC6  0012               	return
  3036                           opt subtitle "HI-TECH Software Omniscient Code Generator (Lite mode) build 49521"
  3037                           
  3038  000AC8                     	__end_of_lcd_2ndline:
  3039                           opt subtitle "HI-TECH Software Omniscient Code Generator (Lite mode) build 49521"
  3040                           
  3041                           opt pagewidth 120
  3042                           
  3043                           	opt lm
  3044                           
  3045                           	processor	18F4550
  3046                           porta	equ	0F80h
  3047                           portb	equ	0F81h
  3048                           portc	equ	0F82h
  3049                           portd	equ	0F83h
  3050                           porte	equ	0F84h
  3051                           lata	equ	0F89h
  3052                           latb	equ	0F8Ah
  3053                           latc	equ	0F8Bh
  3054                           latd	equ	0F8Ch
  3055                           late	equ	0F8Dh
  3056                           trisa	equ	0F92h
  3057                           trisb	equ	0F93h
  3058                           trisc	equ	0F94h
  3059                           trisd	equ	0F95h
  3060                           trise	equ	0F96h
  3061                           pie1	equ	0F9Dh
  3062                           pir1	equ	0F9Eh
  3063                           ipr1	equ	0F9Fh
  3064                           pie2	equ	0FA0h
  3065                           pir2	equ	0FA1h
  3066                           ipr2	equ	0FA2h
  3067                           t3con	equ	0FB1h
  3068                           tmr3l	equ	0FB2h
  3069                           tmr3h	equ	0FB3h
  3070                           ccp1con	equ	0FBDh
  3071                           ccpr1l	equ	0FBEh
  3072                           ccpr1h	equ	0FBFh
  3073                           adcon1	equ	0FC1h
  3074                           adcon0	equ	0FC2h
  3075                           adresl	equ	0FC3h
  3076                           adresh	equ	0FC4h
  3077                           sspcon2	equ	0FC5h
  3078  000ADC                     __ptext10:
  3079                           opt subtitle "HI-TECH Software Omniscient Code Generator (Lite mode) build 49521"
  3080                           
  3081                           opt pagewidth 120
  3082                           
  3083  0000                     	__size_of_lcd_putchar	equ	__end_of_lcd_putchar-_lcd_putchar
  3084                           opt subtitle "HI-TECH Software Omniscient Code Generator (Lite mode) build 49521"
  3085  000ADC                     _lcd_putchar:
  3086                           opt subtitle "HI-TECH Software Omniscient Code Generator (Lite mode) build 49521"
  3087                           
  3088                           opt pagewidth 120
  3089  000ADC                     l1611:
  3090                           opt subtitle "HI-TECH Software Omniscient Code Generator (Lite mode) build 49521"
  3091  000ADC  6E19               	movwf	(??_lcd_putchar+0+0)&0ffh,c
  3092  000ADE  0E01               	movlw	low(01h)
  3093  000AE0  6E15               	movwf	((c:?_send_lcd_data)),c
  3094  000AE2  5019               	movf	(??_lcd_putchar+0+0)&0ffh,c,w
  3095  000AE4  C018  F016         	movff	(c:lcd_putchar@c_data),0+((c:?_send_lcd_data)+01h)
  3096  000AE8  ECBF  F004         	call	_send_lcd_data	;wreg free
  3097                           opt subtitle "HI-TECH Software Omniscient Code Generator (Lite mode) build 49521"
  3098                           
  3099  000AEC                     l189:
  3100  000AEC  0012               	return
  3101                           opt subtitle "HI-TECH Software Omniscient Code Generator (Lite mode) build 49521"
  3102                           
  3103  000AEE                     	__end_of_lcd_putchar:
  3104                           opt subtitle "HI-TECH Software Omniscient Code Generator (Lite mode) build 49521"
  3105                           
  3106                           opt pagewidth 120
  3107                           
  3108                           	opt lm
  3109                           
  3110                           	processor	18F4550
  3111                           porta	equ	0F80h
  3112                           portb	equ	0F81h
  3113                           portc	equ	0F82h
  3114                           portd	equ	0F83h
  3115                           porte	equ	0F84h
  3116                           lata	equ	0F89h
  3117                           latb	equ	0F8Ah
  3118                           latc	equ	0F8Bh
  3119                           latd	equ	0F8Ch
  3120                           late	equ	0F8Dh
  3121                           trisa	equ	0F92h
  3122                           trisb	equ	0F93h
  3123                           trisc	equ	0F94h
  3124                           trisd	equ	0F95h
  3125                           trise	equ	0F96h
  3126                           pie1	equ	0F9Dh
  3127                           pir1	equ	0F9Eh
  3128                           ipr1	equ	0F9Fh
  3129                           pie2	equ	0FA0h
  3130                           pir2	equ	0FA1h
  3131                           ipr2	equ	0FA2h
  3132                           t3con	equ	0FB1h
  3133                           tmr3l	equ	0FB2h
  3134                           tmr3h	equ	0FB3h
  3135                           ccp1con	equ	0FBDh
  3136                           ccpr1l	equ	0FBEh
  3137                           ccpr1h	equ	0FBFh
  3138                           adcon1	equ	0FC1h
  3139                           adcon0	equ	0FC2h
  3140                           adresl	equ	0FC3h
  3141                           adresh	equ	0FC4h
  3142                           sspcon2	equ	0FC5h
  3143                           sspcon1	equ	0FC6h
  3144                           sspstat	equ	0FC7h
  3145                           sspadd	equ	0FC8h
  3146                           sspbuf	equ	0FC9h
  3147  00097E                     __ptext11:
  3148                           opt subtitle "HI-TECH Software Omniscient Code Generator (Lite mode) build 49521"
  3149                           
  3150                           opt pagewidth 120
  3151                           
  3152  0000                     	__size_of_send_lcd_data	equ	__end_of_send_lcd_data-_send_lcd_data
  3153                           opt subtitle "HI-TECH Software Omniscient Code Generator (Lite mode) build 49521"
  3154  00097E                     _send_lcd_data:
  3155                           opt subtitle "HI-TECH Software Omniscient Code Generator (Lite mode) build 49521"
  3156                           
  3157                           opt pagewidth 120
  3158  00097E                     l1583:
  3159                           opt subtitle "HI-TECH Software Omniscient Code Generator (Lite mode) build 49521"
  3160  00097E  C015  F014         	movff	(c:send_lcd_data@b_rs),(c:?_set_lcd_rs)
  3161  000982  EC7D  F005         	call	_set_lcd_rs	;wreg free
  3162                           opt subtitle "HI-TECH Software Omniscient Code Generator (Lite mode) build 49521"
  3163                           
  3164  000986  C016  F014         	movff	(c:send_lcd_data@uc_data),(c:?_set_lcd_data)
  3165  00098A  EC83  F005         	call	_set_lcd_data	;wreg free
  3166                           opt subtitle "HI-TECH Software Omniscient Code Generator (Lite mode) build 49521"
  3167                           
  3168  00098E                     l1585:
  3169                           opt subtitle "HI-TECH Software Omniscient Code Generator (Lite mode) build 49521"
  3170  00098E  6E17               	movwf	(??_send_lcd_data+0+0)&0ffh,c
  3171  000990  0E01               	movlw	low(01h)
  3172  000992  6E14               	movwf	((c:?_set_lcd_e)),c
  3173  000994  5017               	movf	(??_send_lcd_data+0+0)&0ffh,c,w
  3174  000996  EC77  F005         	call	_set_lcd_e	;wreg free
  3175                           opt subtitle "HI-TECH Software Omniscient Code Generator (Lite mode) build 49521"
  3176                           
  3177  00099A                     l1587:
  3178                           opt subtitle "HI-TECH Software Omniscient Code Generator (Lite mode) build 49521"
  3179  00099A  0E10               	movlw	16
  3180  00099C  6E17               movwf	(??_send_lcd_data+0+0)&0ffh,c,f
  3181  00099E  0E94               	movlw	148
  3182  0009A0                     u447:
  3183  0009A0  2EE8               	decfsz	wreg,f
  3184  0009A2  D7FE               	goto	u447
  3185  0009A4  2E17               	decfsz	(??_send_lcd_data+0+0)&0ffh,c,f
  3186  0009A6  D7FC               	goto	u447
  3187  0009A8  F000               	nop
  3188                           opt subtitle "HI-TECH Software Omniscient Code Generator (Lite mode) build 49521"
  3189                           
  3190                           opt pagewidth 120
  3191  0009AA                     l1589:
  3192                           opt subtitle "HI-TECH Software Omniscient Code Generator (Lite mode) build 49521"
  3193  0009AA  6E17               	movwf	(??_send_lcd_data+0+0)&0ffh,c
  3194  0009AC  0E00               	movlw	low(0)
  3195  0009AE  6E14               	movwf	((c:?_set_lcd_e)),c
  3196  0009B0  5017               	movf	(??_send_lcd_data+0+0)&0ffh,c,w
  3197  0009B2  EC77  F005         	call	_set_lcd_e	;wreg free
  3198                           opt subtitle "HI-TECH Software Omniscient Code Generator (Lite mode) build 49521"
  3199                           
  3200  0009B6                     l1591:
  3201                           opt subtitle "HI-TECH Software Omniscient Code Generator (Lite mode) build 49521"
  3202  0009B6  0E20               	movlw	32
  3203  0009B8  6E17               movwf	(??_send_lcd_data+0+0)&0ffh,c,f
  3204  0009BA  0E29               	movlw	41
  3205  0009BC                     u457:
  3206  0009BC  2EE8               	decfsz	wreg,f
  3207  0009BE  D7FE               	goto	u457
  3208  0009C0  2E17               	decfsz	(??_send_lcd_data+0+0)&0ffh,c,f
  3209  0009C2  D7FC               	goto	u457
  3210  0009C4  D000               	nop2
  3211                           opt subtitle "HI-TECH Software Omniscient Code Generator (Lite mode) build 49521"
  3212                           
  3213                           opt pagewidth 120
  3214  0009C6                     l1593:
  3215                           opt subtitle "HI-TECH Software Omniscient Code Generator (Lite mode) build 49521"
  3216  0009C6  6E17               	movwf	(??_send_lcd_data+0+0)&0ffh,c
  3217  0009C8  0E00               	movlw	low(0)
  3218  0009CA  6E14               	movwf	((c:?_set_lcd_rs)),c
  3219  0009CC  5017               	movf	(??_send_lcd_data+0+0)&0ffh,c,w
  3220  0009CE  EC7D  F005         	call	_set_lcd_rs	;wreg free
  3221                           opt subtitle "HI-TECH Software Omniscient Code Generator (Lite mode) build 49521"
  3222                           
  3223  0009D2                     l1595:
  3224                           opt subtitle "HI-TECH Software Omniscient Code Generator (Lite mode) build 49521"
  3225  0009D2  6E17               	movwf	(??_send_lcd_data+0+0)&0ffh,c
  3226  0009D4  0E00               	movlw	low(0)
  3227  0009D6  6E14               	movwf	((c:?_set_lcd_data)),c
  3228  0009D8  5017               	movf	(??_send_lcd_data+0+0)&0ffh,c,w
  3229  0009DA  EC83  F005         	call	_set_lcd_data	;wreg free
  3230                           opt subtitle "HI-TECH Software Omniscient Code Generator (Lite mode) build 49521"
  3231                           
  3232  0009DE                     l257:
  3233  0009DE  0012               	return
  3234                           opt subtitle "HI-TECH Software Omniscient Code Generator (Lite mode) build 49521"
  3235                           
  3236  0009E0                     	__end_of_send_lcd_data:
  3237                           opt subtitle "HI-TECH Software Omniscient Code Generator (Lite mode) build 49521"
  3238                           
  3239                           opt pagewidth 120
  3240                           
  3241                           	opt lm
  3242                           
  3243                           	processor	18F4550
  3244                           porta	equ	0F80h
  3245                           portb	equ	0F81h
  3246                           portc	equ	0F82h
  3247                           portd	equ	0F83h
  3248                           porte	equ	0F84h
  3249                           lata	equ	0F89h
  3250                           latb	equ	0F8Ah
  3251                           latc	equ	0F8Bh
  3252                           latd	equ	0F8Ch
  3253                           late	equ	0F8Dh
  3254                           trisa	equ	0F92h
  3255                           trisb	equ	0F93h
  3256                           trisc	equ	0F94h
  3257                           trisd	equ	0F95h
  3258                           trise	equ	0F96h
  3259                           pie1	equ	0F9Dh
  3260                           pir1	equ	0F9Eh
  3261                           ipr1	equ	0F9Fh
  3262                           pie2	equ	0FA0h
  3263                           pir2	equ	0FA1h
  3264                           ipr2	equ	0FA2h
  3265                           t3con	equ	0FB1h
  3266                           tmr3l	equ	0FB2h
  3267                           tmr3h	equ	0FB3h
  3268                           ccp1con	equ	0FBDh
  3269                           ccpr1l	equ	0FBEh
  3270                           ccpr1h	equ	0FBFh
  3271  000AEE                     __ptext12:
  3272                           opt subtitle "HI-TECH Software Omniscient Code Generator (Lite mode) build 49521"
  3273                           
  3274                           opt pagewidth 120
  3275                           
  3276  0000                     	__size_of_set_lcd_e	equ	__end_of_set_lcd_e-_set_lcd_e
  3277                           opt subtitle "HI-TECH Software Omniscient Code Generator (Lite mode) build 49521"
  3278  000AEE                     _set_lcd_e:
  3279                           opt subtitle "HI-TECH Software Omniscient Code Generator (Lite mode) build 49521"
  3280                           
  3281                           opt pagewidth 120
  3282  000AEE                     l1353:
  3283                           opt subtitle "HI-TECH Software Omniscient Code Generator (Lite mode) build 49521"
  3284  000AEE  B014               	btfsc	(c:set_lcd_e@b_output),c,0
  3285  000AF0  D002               	bra	u55
  3286  000AF2  9689               	bcf	((c:3977)),c,3	;volatile
  3287  000AF4  D001               	bra	u56
  3288  000AF6                     	u55:
  3289  000AF6  8689               	bsf	((c:3977)),c,3	;volatile
  3290  000AF8                     	u56:
  3291                           opt subtitle "HI-TECH Software Omniscient Code Generator (Lite mode) build 49521"
  3292                           
  3293                           opt pagewidth 120
  3294  000AF8                     l260:
  3295  000AF8  0012               	return
  3296                           opt subtitle "HI-TECH Software Omniscient Code Generator (Lite mode) build 49521"
  3297                           
  3298  000AFA                     	__end_of_set_lcd_e:
  3299                           opt subtitle "HI-TECH Software Omniscient Code Generator (Lite mode) build 49521"
  3300                           
  3301                           opt pagewidth 120
  3302                           
  3303                           	opt lm
  3304                           
  3305                           	processor	18F4550
  3306                           porta	equ	0F80h
  3307                           portb	equ	0F81h
  3308                           portc	equ	0F82h
  3309                           portd	equ	0F83h
  3310                           porte	equ	0F84h
  3311                           lata	equ	0F89h
  3312                           latb	equ	0F8Ah
  3313                           latc	equ	0F8Bh
  3314                           latd	equ	0F8Ch
  3315                           late	equ	0F8Dh
  3316                           trisa	equ	0F92h
  3317                           trisb	equ	0F93h
  3318                           trisc	equ	0F94h
  3319                           trisd	equ	0F95h
  3320                           trise	equ	0F96h
  3321                           pie1	equ	0F9Dh
  3322                           pir1	equ	0F9Eh
  3323                           ipr1	equ	0F9Fh
  3324                           pie2	equ	0FA0h
  3325                           pir2	equ	0FA1h
  3326                           ipr2	equ	0FA2h
  3327                           t3con	equ	0FB1h
  3328                           tmr3l	equ	0FB2h
  3329                           tmr3h	equ	0FB3h
  3330                           ccp1con	equ	0FBDh
  3331                           ccpr1l	equ	0FBEh
  3332  000AFA                     __ptext13:
  3333                           opt subtitle "HI-TECH Software Omniscient Code Generator (Lite mode) build 49521"
  3334                           
  3335                           opt pagewidth 120
  3336                           
  3337  0000                     	__size_of_set_lcd_rs	equ	__end_of_set_lcd_rs-_set_lcd_rs
  3338                           opt subtitle "HI-TECH Software Omniscient Code Generator (Lite mode) build 49521"
  3339  000AFA                     _set_lcd_rs:
  3340                           opt subtitle "HI-TECH Software Omniscient Code Generator (Lite mode) build 49521"
  3341                           
  3342                           opt pagewidth 120
  3343  000AFA                     l1515:
  3344                           opt subtitle "HI-TECH Software Omniscient Code Generator (Lite mode) build 49521"
  3345  000AFA  B014               	btfsc	(c:set_lcd_rs@b_output),c,0
  3346  000AFC  D002               	bra	u335
  3347  000AFE  9489               	bcf	((c:3977)),c,2	;volatile
  3348  000B00  D001               	bra	u336
  3349  000B02                     	u335:
  3350  000B02  8489               	bsf	((c:3977)),c,2	;volatile
  3351  000B04                     	u336:
  3352                           opt subtitle "HI-TECH Software Omniscient Code Generator (Lite mode) build 49521"
  3353                           
  3354                           opt pagewidth 120
  3355  000B04                     l263:
  3356  000B04  0012               	return
  3357                           opt subtitle "HI-TECH Software Omniscient Code Generator (Lite mode) build 49521"
  3358                           
  3359  000B06                     	__end_of_set_lcd_rs:
  3360                           opt subtitle "HI-TECH Software Omniscient Code Generator (Lite mode) build 49521"
  3361                           
  3362                           opt pagewidth 120
  3363                           
  3364                           	opt lm
  3365                           
  3366                           	processor	18F4550
  3367                           porta	equ	0F80h
  3368                           portb	equ	0F81h
  3369                           portc	equ	0F82h
  3370                           portd	equ	0F83h
  3371                           porte	equ	0F84h
  3372                           lata	equ	0F89h
  3373                           latb	equ	0F8Ah
  3374                           latc	equ	0F8Bh
  3375                           latd	equ	0F8Ch
  3376                           late	equ	0F8Dh
  3377                           trisa	equ	0F92h
  3378                           trisb	equ	0F93h
  3379                           trisc	equ	0F94h
  3380                           trisd	equ	0F95h
  3381                           trise	equ	0F96h
  3382                           pie1	equ	0F9Dh
  3383                           pir1	equ	0F9Eh
  3384                           ipr1	equ	0F9Fh
  3385                           pie2	equ	0FA0h
  3386                           pir2	equ	0FA1h
  3387                           ipr2	equ	0FA2h
  3388                           t3con	equ	0FB1h
  3389                           tmr3l	equ	0FB2h
  3390                           tmr3h	equ	0FB3h
  3391                           ccp1con	equ	0FBDh
  3392                           ccpr1l	equ	0FBEh
  3393  000B06                     __ptext14:
  3394                           opt subtitle "HI-TECH Software Omniscient Code Generator (Lite mode) build 49521"
  3395                           
  3396                           opt pagewidth 120
  3397                           
  3398  0000                     	__size_of_set_lcd_data	equ	__end_of_set_lcd_data-_set_lcd_data
  3399                           opt subtitle "HI-TECH Software Omniscient Code Generator (Lite mode) build 49521"
  3400  000B06                     _set_lcd_data:
  3401                           opt subtitle "HI-TECH Software Omniscient Code Generator (Lite mode) build 49521"
  3402                           
  3403                           opt pagewidth 120
  3404  000B06                     l1517:
  3405                           opt subtitle "HI-TECH Software Omniscient Code Generator (Lite mode) build 49521"
  3406  000B06  C014  FF8C         	movff	(c:set_lcd_data@uc_data),(c:3980)	;volatile
  3407                           opt subtitle "HI-TECH Software Omniscient Code Generator (Lite mode) build 49521"
  3408                           
  3409  000B0A                     l266:
  3410  000B0A  0012               	return
  3411                           opt subtitle "HI-TECH Software Omniscient Code Generator (Lite mode) build 49521"
  3412                           
  3413  000B0C                     	__end_of_set_lcd_data:
  3414                           opt subtitle "HI-TECH Software Omniscient Code Generator (Lite mode) build 49521"
  3415                           
  3416  00081F  00                 	db 0	; dummy byte at the end
  3417                           opt subtitle "HI-TECH Software Omniscient Code Generator (Lite mode) build 49521"
  3418                           
  3419                           opt pagewidth 120
  3420  0000                     __activetblptr	EQU	1
  3421                           opt subtitle "HI-TECH Software Omniscient Code Generator (Lite mode) build 49521"
  3422                           
  3423                           opt pagewidth 120
  3424                           
  3425                           	opt lm
  3426                           
  3427  0000                     __Lparam	EQU	__Lrparam
  3428  0000                     __Hparam	EQU	__Hrparam


Data Sizes:
    Strings     31
    Constant    0
    Data        0
    BSS         19
    Persistent  0
    Stack       0

Auto Spaces:
    Space          Size  Autos    Used
    COMRAM           95      9      28
    BANK0           160      0       0
    BANK1           256      0       0
    BANK2           256      0       0
    BANK3           256      0       0
    BANK4           256      0       0
    BANK5           256      0       0
    BANK6           256      0       0
    BANK7           256      0       0

Pointer List with Targets:

    lcd_putstr@csz_string	PTR const unsigned char  size(2) Largest target is 14
		 -> STR_3(CODE[5]), STR_2(CODE[12]), STR_1(CODE[14]), 


Critical Paths under _main in COMRAM

    _main->_lcd_initialize
    _main->_lcd_putstr
    _lcd_initialize->_lcd_clear
    _beep->_delay_ms
    _lcd_goto->_send_lcd_data
    _lcd_putstr->_lcd_2ndline
    _lcd_putstr->_lcd_putchar
    _lcd_clear->_send_lcd_data
    _lcd_2ndline->_send_lcd_data
    _lcd_putchar->_send_lcd_data
    _send_lcd_data->_set_lcd_rs
    _send_lcd_data->_set_lcd_data
    _send_lcd_data->_set_lcd_e

Critical Paths under _main in BANK0

    None.

Critical Paths under _main in BANK1

    None.

Critical Paths under _main in BANK2

    None.

Critical Paths under _main in BANK3

    None.

Critical Paths under _main in BANK4

    None.

Critical Paths under _main in BANK5

    None.

Critical Paths under _main in BANK6

    None.

Critical Paths under _main in BANK7

    None.

Call Graph Tables:

 ---------------------------------------------------------------------------------
 (Depth) Function   	        Calls       Base Space   Used Autos Params    Refs
 ---------------------------------------------------------------------------------
 (0) _main                                                 1     1      0     525
                                              8 COMRAM     1     1      0
                     _adc_initialize
                    _seg7_initialize
                     _lcd_initialize
                               _beep
                           _lcd_goto
                         _lcd_putstr
 ---------------------------------------------------------------------------------
 (1) _adc_initialize                                       0     0      0       0
 ---------------------------------------------------------------------------------
 (1) _seg7_initialize                                      0     0      0       0
 ---------------------------------------------------------------------------------
 (1) _lcd_initialize                                       2     2      0     165
                                              6 COMRAM     2     2      0
                          _set_lcd_e
                      _send_lcd_data
                          _lcd_clear
 ---------------------------------------------------------------------------------
 (1) _beep                                                 1     0      1      45
                                              3 COMRAM     1     0      1
                           _delay_ms
 ---------------------------------------------------------------------------------
 (1) _lcd_goto                                             2     1      1      90
                                              4 COMRAM     2     1      1
                      _send_lcd_data
 ---------------------------------------------------------------------------------
 (1) _lcd_putstr                                           2     0      2     225
                                              6 COMRAM     2     0      2
                        _lcd_2ndline
                        _lcd_putchar
 ---------------------------------------------------------------------------------
 (2) _delay_ms                                             3     1      2      30
                                              0 COMRAM     3     1      2
 ---------------------------------------------------------------------------------
 (2) _lcd_clear                                            2     2      0      75
                                              4 COMRAM     2     2      0
                      _send_lcd_data
 ---------------------------------------------------------------------------------
 (2) _lcd_2ndline                                          2     2      0      75
                                              4 COMRAM     2     2      0
                      _send_lcd_data
 ---------------------------------------------------------------------------------
 (2) _lcd_putchar                                          2     1      1      90
                                              4 COMRAM     2     1      1
                      _send_lcd_data
 ---------------------------------------------------------------------------------
 (3) _send_lcd_data                                        3     1      2      75
                                              1 COMRAM     3     1      2
                         _set_lcd_rs
                       _set_lcd_data
                          _set_lcd_e
 ---------------------------------------------------------------------------------
 (4) _set_lcd_e                                            1     0      1      15
                                              0 COMRAM     1     0      1
 ---------------------------------------------------------------------------------
 (4) _set_lcd_rs                                           1     0      1      15
                                              0 COMRAM     1     0      1
 ---------------------------------------------------------------------------------
 (4) _set_lcd_data                                         1     0      1      15
                                              0 COMRAM     1     0      1
 ---------------------------------------------------------------------------------
 Estimated maximum stack depth 4
 ---------------------------------------------------------------------------------

 Call Graph Graphs:

 _main (ROOT)
   _adc_initialize
   _seg7_initialize
   _lcd_initialize
     _set_lcd_e
     _send_lcd_data
       _set_lcd_rs
       _set_lcd_data
       _set_lcd_e
     _lcd_clear
       _send_lcd_data
         _set_lcd_rs
         _set_lcd_data
         _set_lcd_e
   _beep
     _delay_ms
   _lcd_goto
     _send_lcd_data
       _set_lcd_rs
       _set_lcd_data
       _set_lcd_e
   _lcd_putstr
     _lcd_2ndline
       _send_lcd_data
         _set_lcd_rs
         _set_lcd_data
         _set_lcd_e
     _lcd_putchar
       _send_lcd_data
         _set_lcd_rs
         _set_lcd_data
         _set_lcd_e

 Address spaces:
Name               Size   Autos  Total    Cost      Usage
BIGRAM             7FF      0       0      21        0.0%
EEDATA             100      0       0       0        0.0%
BITBANK7           100      0       0      18        0.0%
BANK7              100      0       0      19        0.0%
BITBANK6           100      0       0      16        0.0%
BANK6              100      0       0      17        0.0%
BITBANK5           100      0       0      14        0.0%
BANK5              100      0       0      15        0.0%
BITBANK4           100      0       0      12        0.0%
BANK4              100      0       0      13        0.0%
BITBANK3           100      0       0      10        0.0%
BANK3              100      0       0      11        0.0%
BITBANK2           100      0       0       8        0.0%
BANK2              100      0       0       9        0.0%
BITBANK1           100      0       0       6        0.0%
BANK1              100      0       0       7        0.0%
BITBANK0            A0      0       0       4        0.0%
BANK0               A0      0       0       5        0.0%
BITCOMRAM           5F      0       0       0        0.0%
COMRAM              5F      9      1C       1       29.5%
BITSFR               0      0       0      40        0.0%
SFR                  0      0       0      40        0.0%
STACK                0      0       4       2        0.0%
NULL                 0      0       0       0        0.0%
ABS                  0      0      1C      20        0.0%
DATA                 0      0      20       3        0.0%
CODE                 0      0       0       0        0.0%


Microchip Technology PIC18 Macro Assembler V1.12 build 49521 
Symbol Table                                                                                   Tue Jun 10 13:41:36 2014

            ?_lcd_putchar 0018                        l45 0A62                        l68 0A80  
                      _GO 007E11                        u55 0AF6                        u56 0AF8  
                     l122 0864                       l123 0864                       l124 086E  
                     l141 0A36                       l125 089E                       l142 0A18  
                     l126 089E                       l143 0A44                       l127 08A0  
                     l136 09F0                       l144 0A44                       l128 08A0  
                     l137 0A14                       l138 0A14                       l171 0912  
                     l260 0AF8                       l263 0B04                       l183 0AC6  
                     l192 0964                       l257 09DE                       l177 0AB0  
                     l193 0916                       l266 0B0A                       l194 094A  
                     l186 0ADA                       l196 0944                       l189 0AEC  
                     l197 095E                       l198 097C                       l199 097C  
                     _LC2 007C5A                       _LE0 007C68                       _LE1 007C69  
                     _RB0 007C08                       u400 086C                       u401 086A  
                     u340 09EC                       u341 09EA                       u350 0A12  
                     u335 0B02                       u351 0A10                       u336 0B04  
                     u360 0A42                       u361 0A40                       u417 0A72  
                     u370 092C                       u371 092A                       u427 08B6  
                     u380 0942                       u437 09F6                       u381 0940  
                     u390 097A                       u447 09A0                       u391 0978  
                     u457 09BC              __CFG_BOR$OFF 000000                       wreg 000FE8  
            __CFG_IESO$ON 000000         set_lcd_e@b_output 0014              __CFG_LVP$OFF 000000  
            __CFG_WDT$OFF 000000                      l1311 0A46                      l1353 0AEE  
                    l1601 0A26                      l1515 0AFA                      l1611 0ADC  
                    l1603 0A36                      l1517 0B06                      l1605 0AC8  
                    l1621 08EC                      l1613 08A4                      l1607 0A9C  
                    l1631 0916                      l1623 08F4                      l1615 08B0  
                    l1609 0AB2                      l1633 092C                      l1641 0964  
                    l1625 0906                      l1617 08D2                      l1635 0944  
                    l1627 090E                      l1619 08DA                      l1571 0A78  
                    l1563 0A64                      l1651 0854                      l1643 0820  
                    l1581 0A00                      l1637 094A                      l1629 0914  
                    l1573 0A7A                      l1565 0A68                      l1653 0860  
                    l1645 0848                      l1591 09B6                      l1583 097E  
                    l1575 09E0                      l1639 095E                      l1567 0A70  
                    l1655 086E                      l1647 084C                      l1593 09C6  
                    l1585 098E                      l1577 09EE                      l1569 0A76  
                    l1657 087A                      l1649 0850                      l1595 09D2  
                    l1587 099A                      l1579 09F0                      l1659 0886  
                    l1589 09AA                      l1597 0A16                      l1599 0A1A  
                    _ADFM 007E07                      _ADON 007E10                      _CHS0 007E12  
                    _CHS1 007E13                      _CHS2 007E14                      _CHS3 007E15  
                    STR_1 0800                      STR_2 080E                      STR_3 081A  
                    _DONE 007E11                      _LATD 000F8C              __CFG_PWRT$ON 000000  
           __CFG_FCMEN$ON 000000              __CFG_WRTB$ON 000000                      _beep 0A16  
                    _main 0820                      start 0000             __CFG_MCLRE$ON 000000  
           __CFG_PLLDIV$5 000000            __CFG_CCP2MX$ON 000000                     ?_beep 0017  
                   _ADCS0 007E00                     _ADCS1 007E01                     _ADCS2 007E02  
                   ?_main 0014                     _ACQT0 007E03                     _ACQT1 007E04  
                   _ACQT2 007E05                     _ADRES 000FC3            __CFG_DEBUG$OFF 000000  
                   _PCFG0 007E08                     _PCFG1 007E09                     _PCFG2 007E0A  
                   _PCFG3 007E0B                     _VCFG0 007E0C                     _VCFG1 007E0D  
                   _PORTA 000F80                     _PORTB 000F81                     _PORTC 000F82  
                   _PORTD 000F83                     _PORTE 000F84             __CFG_USBDIV$2 000000  
                   _TRISA 000F92                     _TRISB 000F93                     _TRISC 000F94  
                   _TRISD 000F95                     _TRISE 000F96      send_lcd_data@uc_data 0016  
                   tablat 000FF5                     status 000FD8            __CFG_PBADEN$ON 000000  
         __initialization 0A82         send_lcd_data@b_rs 0015              __end_of_beep 0A46  
            __end_of_main 08A4  __size_of_seg7_initialize 001E      __size_of_lcd_2ndline 0016  
   __end_of_send_lcd_data 09E0            lcd_float@F5227 000B                    ??_beep 0018  
                  ??_main 001C             __activetblptr 000001            __CFG_VREGEN$ON 000000  
        __end_of_delay_ms 0A16            __CFG_XINST$OFF 000000          __end_of_lcd_goto 0ADC  
          __CFG_STVREN$ON 000000   __size_of_adc_initialize 001E                    clear_0 0A88  
    __size_of_lcd_putchar 0012              __mediumconst 0000                    tblptrh 000FF7  
                  tblptrl 000FF6                    tblptru 000FF8          ??_lcd_initialize 001A  
              __accesstop 0060   __end_of__initialization 0A8E            __pcstackCOMRAM 0014  
       ??_seg7_initialize 0014        __size_of_lcd_clear 0016        __size_of_set_lcd_e 000C  
               ?_delay_ms 0014                _lcd_putstr 0914                 ?_lcd_goto 0018  
           ?_set_lcd_data 0014                   __Hparam 0000                   __Lparam 0000  
       __end_of_lcd_clear 0AB2            _adc_initialize 0A46              __psmallconst 0800  
                 __pcinit 0A82                   __ramtop 0800                   __ptext0 0820  
                 __ptext1 0A46                   __ptext2 0A64                   __ptext3 08A4  
                 __ptext4 0A16                   __ptext5 0AC8                   __ptext6 0914  
                 __ptext7 09E0                   __ptext8 0A9C                   __ptext9 0AB2  
              ??_delay_ms 0016    delay_ms@ui_millisecond 0014                ??_lcd_goto 0019  
            beep@uc_count 0017      end_of_initialization 0A8E            ??_set_lcd_data 0015  
       __end_of_set_lcd_e 0AFA    __end_of_adc_initialize 0A64                _set_lcd_rs 0AFA  
           ??_lcd_2ndline 0018                   postinc0 000FEE               ?_lcd_putstr 001A  
  __size_of_send_lcd_data 0062           ?_adc_initialize 0014           _seg7_initialize 0A64  
           ??_lcd_putchar 0019         lcd_putchar@c_data 0018       __end_of_lcd_2ndline 0AC8  
     start_initialization 0A82        set_lcd_rs@b_output 0014      lcd_putstr@csz_string 001A  
     lcd_goto@uc_position 0018               ?_set_lcd_rs 0014       __size_of_lcd_putstr 006A  
        __CFG_LPT1OSC$OFF 000000             _send_lcd_data 097E      __end_of_set_lcd_data 0B0C  
     __end_of_lcd_putchar 0AEE               __pbssCOMRAM 0001       __end_of__stringdata 081F  
       __size_of_delay_ms 0036         __size_of_lcd_goto 0014   __end_of_seg7_initialize 0A82  
 __size_of_lcd_initialize 0070               _lcd_2ndline 0AB2                 _lcd_clear 0A9C  
          ?_send_lcd_data 0015               __smallconst 0800       __size_of_set_lcd_rs 000C  
     set_lcd_data@uc_data 0014                  _LATAbits 000F89                 _set_lcd_e 0AEE  
             _lcd_putchar 0ADC                ?_lcd_clear 0014               __stringdata 0800  
            ??_lcd_putstr 001C          ??_adc_initialize 0014          ?_seg7_initialize 0014  
                __Hrparam 0000                ?_set_lcd_e 0014                  __Lrparam 0000  
            __Lsmallconst 0800     __size_of_set_lcd_data 0006           ??_send_lcd_data 0017  
      __end_of_lcd_putstr 097E                  _delay_ms 09E0                  __ptext10 0ADC  
                __ptext11 097E                  __ptext12 0AEE                  __ptext13 0AFA  
                __ptext14 0B06                  _lcd_goto 0AC8             __size_of_beep 0030  
           __size_of_main 0084              _set_lcd_data 0B06            _lcd_initialize 08A4  
            ??_set_lcd_rs 0015               ??_lcd_clear 0018     __CFG_CPUDIV$OSC1_PLL2 000000  
      __end_of_set_lcd_rs 0B06    __end_of_lcd_initialize 0914           _display_control 0011  
             ??_set_lcd_e 0015              ?_lcd_2ndline 0014              lcd_bcd@F5220 0001  
      __CFG_FOSC$HSPLL_HS 000000             _display_entry 0012             _display_shift 0013  
         ?_lcd_initialize 0014  
